	.text
	.file	"hisi_ufs_bkops.c"
	.file	1 "/mnt/disk/jenkins/ci/workspace/chipset_Q_ATLANTA_R_LV_1016/opensource/component_code/vendor/huawei/extra/build/build_script/kirin_kernel_release/kernel/drivers/scsi/ufs/ufshcd.h"
	.file	2 "/mnt/disk/jenkins/ci/workspace/chipset_Q_ATLANTA_R_LV_1016/opensource/component_code/vendor/huawei/extra/build/build_script/kirin_kernel_release/kernel/include/asm-generic/int-ll64.h"
	.file	3 "/mnt/disk/jenkins/ci/workspace/chipset_Q_ATLANTA_R_LV_1016/opensource/component_code/vendor/huawei/extra/build/build_script/kirin_kernel_release/kernel/drivers/scsi/ufs/ufshci.h"
	.file	4 "/mnt/disk/jenkins/ci/workspace/chipset_Q_ATLANTA_R_LV_1016/opensource/component_code/vendor/huawei/extra/build/build_script/kirin_kernel_release/kernel/include/uapi/asm-generic/int-ll64.h"
	.file	5 "/mnt/disk/jenkins/ci/workspace/chipset_Q_ATLANTA_R_LV_1016/opensource/component_code/vendor/huawei/extra/build/build_script/kirin_kernel_release/kernel/include/uapi/linux/types.h"
	.file	6 "/mnt/disk/jenkins/ci/workspace/chipset_Q_ATLANTA_R_LV_1016/opensource/component_code/vendor/huawei/extra/build/build_script/kirin_kernel_release/kernel/include/linux/types.h"
	.file	7 "/mnt/disk/jenkins/ci/workspace/chipset_Q_ATLANTA_R_LV_1016/opensource/component_code/vendor/huawei/extra/build/build_script/kirin_kernel_release/kernel/include/scsi/scsi_host.h"
	.file	8 "/mnt/disk/jenkins/ci/workspace/chipset_Q_ATLANTA_R_LV_1016/opensource/component_code/vendor/huawei/extra/build/build_script/kirin_kernel_release/kernel/arch/arm64/include/asm/spinlock_types.h"
	.file	9 "/mnt/disk/jenkins/ci/workspace/chipset_Q_ATLANTA_R_LV_1016/opensource/component_code/vendor/huawei/extra/build/build_script/kirin_kernel_release/kernel/include/linux/spinlock_types.h"
	.file	10 "/mnt/disk/jenkins/ci/workspace/chipset_Q_ATLANTA_R_LV_1016/opensource/component_code/vendor/huawei/extra/build/build_script/kirin_kernel_release/kernel/include/asm-generic/atomic-long.h"
	.file	11 "/mnt/disk/jenkins/ci/workspace/chipset_Q_ATLANTA_R_LV_1016/opensource/component_code/vendor/huawei/extra/build/build_script/kirin_kernel_release/kernel/include/linux/mutex.h"
	.file	12 "/mnt/disk/jenkins/ci/workspace/chipset_Q_ATLANTA_R_LV_1016/opensource/component_code/vendor/huawei/extra/build/build_script/kirin_kernel_release/kernel/include/linux/osq_lock.h"
	.file	13 "/mnt/disk/jenkins/ci/workspace/chipset_Q_ATLANTA_R_LV_1016/opensource/component_code/vendor/huawei/extra/build/build_script/kirin_kernel_release/kernel/arch/arm64/include/asm/thread_info.h"
	.file	14 "/mnt/disk/jenkins/ci/workspace/chipset_Q_ATLANTA_R_LV_1016/opensource/component_code/vendor/huawei/extra/build/build_script/kirin_kernel_release/kernel/include/linux/sched.h"
	.file	15 "/mnt/disk/jenkins/ci/workspace/chipset_Q_ATLANTA_R_LV_1016/opensource/component_code/vendor/huawei/extra/build/build_script/kirin_kernel_release/kernel/include/uapi/asm-generic/posix_types.h"
	.file	16 "/mnt/disk/jenkins/ci/workspace/chipset_Q_ATLANTA_R_LV_1016/opensource/component_code/vendor/huawei/extra/build/build_script/kirin_kernel_release/kernel/include/linux/llist.h"
	.file	17 "/mnt/disk/jenkins/ci/workspace/chipset_Q_ATLANTA_R_LV_1016/opensource/component_code/vendor/huawei/extra/build/build_script/kirin_kernel_release/kernel/include/linux/rbtree.h"
	.file	18 "/mnt/disk/jenkins/ci/workspace/chipset_Q_ATLANTA_R_LV_1016/opensource/component_code/vendor/huawei/extra/build/build_script/kirin_kernel_release/kernel/include/linux/cpumask.h"
	.file	19 "/mnt/disk/jenkins/ci/workspace/chipset_Q_ATLANTA_R_LV_1016/opensource/component_code/vendor/huawei/extra/build/build_script/kirin_kernel_release/kernel/include/linux/timerqueue.h"
	.file	20 "/mnt/disk/jenkins/ci/workspace/chipset_Q_ATLANTA_R_LV_1016/opensource/component_code/vendor/huawei/extra/build/build_script/kirin_kernel_release/kernel/include/linux/ktime.h"
	.file	21 "/mnt/disk/jenkins/ci/workspace/chipset_Q_ATLANTA_R_LV_1016/opensource/component_code/vendor/huawei/extra/build/build_script/kirin_kernel_release/kernel/include/linux/hrtimer.h"
	.file	22 "/mnt/disk/jenkins/ci/workspace/chipset_Q_ATLANTA_R_LV_1016/opensource/component_code/vendor/huawei/extra/build/build_script/kirin_kernel_release/kernel/include/linux/seqlock.h"
	.file	23 "/mnt/disk/jenkins/ci/workspace/chipset_Q_ATLANTA_R_LV_1016/opensource/component_code/vendor/huawei/extra/build/build_script/kirin_kernel_release/kernel/include/linux/plist.h"
	.file	24 "/mnt/disk/jenkins/ci/workspace/chipset_Q_ATLANTA_R_LV_1016/opensource/component_code/vendor/huawei/extra/build/build_script/kirin_kernel_release/kernel/include/linux/mm_types.h"
	.file	25 "/mnt/disk/jenkins/ci/workspace/chipset_Q_ATLANTA_R_LV_1016/opensource/component_code/vendor/huawei/extra/build/build_script/kirin_kernel_release/kernel/arch/arm64/include/asm/pgtable-types.h"
	.file	26 "/mnt/disk/jenkins/ci/workspace/chipset_Q_ATLANTA_R_LV_1016/opensource/component_code/vendor/huawei/extra/build/build_script/kirin_kernel_release/kernel/include/linux/mm.h"
	.file	27 "/mnt/disk/jenkins/ci/workspace/chipset_Q_ATLANTA_R_LV_1016/opensource/component_code/vendor/huawei/extra/build/build_script/kirin_kernel_release/kernel/include/asm-generic/pgtable-nop4d-hack.h"
	.file	28 "/mnt/disk/jenkins/ci/workspace/chipset_Q_ATLANTA_R_LV_1016/opensource/component_code/vendor/huawei/extra/build/build_script/kirin_kernel_release/kernel/include/linux/fs.h"
	.file	29 "/mnt/disk/jenkins/ci/workspace/chipset_Q_ATLANTA_R_LV_1016/opensource/component_code/vendor/huawei/extra/build/build_script/kirin_kernel_release/kernel/include/linux/uidgid.h"
	.file	30 "/mnt/disk/jenkins/ci/workspace/chipset_Q_ATLANTA_R_LV_1016/opensource/component_code/vendor/huawei/extra/build/build_script/kirin_kernel_release/kernel/include/linux/dcache.h"
	.file	31 "/mnt/disk/jenkins/ci/workspace/chipset_Q_ATLANTA_R_LV_1016/opensource/component_code/vendor/huawei/extra/build/build_script/kirin_kernel_release/kernel/include/linux/list_bl.h"
	.file	32 "/mnt/disk/jenkins/ci/workspace/chipset_Q_ATLANTA_R_LV_1016/opensource/component_code/vendor/huawei/extra/build/build_script/kirin_kernel_release/kernel/include/linux/lockref.h"
	.file	33 "/mnt/disk/jenkins/ci/workspace/chipset_Q_ATLANTA_R_LV_1016/opensource/component_code/vendor/huawei/extra/build/build_script/kirin_kernel_release/kernel/include/linux/path.h"
	.file	34 "/mnt/disk/jenkins/ci/workspace/chipset_Q_ATLANTA_R_LV_1016/opensource/component_code/vendor/huawei/extra/build/build_script/kirin_kernel_release/kernel/include/linux/module.h"
	.file	35 "/mnt/disk/jenkins/ci/workspace/chipset_Q_ATLANTA_R_LV_1016/opensource/component_code/vendor/huawei/extra/build/build_script/kirin_kernel_release/kernel/include/linux/kobject.h"
	.file	36 "/mnt/disk/jenkins/ci/workspace/chipset_Q_ATLANTA_R_LV_1016/opensource/component_code/vendor/huawei/extra/build/build_script/kirin_kernel_release/kernel/include/linux/sysfs.h"
	.file	37 "/mnt/disk/jenkins/ci/workspace/chipset_Q_ATLANTA_R_LV_1016/opensource/component_code/vendor/huawei/extra/build/build_script/kirin_kernel_release/kernel/include/linux/kobject_ns.h"
	.file	38 "/mnt/disk/jenkins/ci/workspace/chipset_Q_ATLANTA_R_LV_1016/opensource/component_code/vendor/huawei/extra/build/build_script/kirin_kernel_release/kernel/include/linux/kernfs.h"
	.file	39 "/mnt/disk/jenkins/ci/workspace/chipset_Q_ATLANTA_R_LV_1016/opensource/component_code/vendor/huawei/extra/build/build_script/kirin_kernel_release/kernel/include/linux/radix-tree.h"
	.file	40 "/mnt/disk/jenkins/ci/workspace/chipset_Q_ATLANTA_R_LV_1016/opensource/component_code/vendor/huawei/extra/build/build_script/kirin_kernel_release/kernel/include/linux/idr.h"
	.file	41 "/mnt/disk/jenkins/ci/workspace/chipset_Q_ATLANTA_R_LV_1016/opensource/component_code/vendor/huawei/extra/build/build_script/kirin_kernel_release/kernel/include/linux/seq_file.h"
	.file	42 "/mnt/disk/jenkins/ci/workspace/chipset_Q_ATLANTA_R_LV_1016/opensource/component_code/vendor/huawei/extra/build/build_script/kirin_kernel_release/kernel/include/linux/wait.h"
	.file	43 "/mnt/disk/jenkins/ci/workspace/chipset_Q_ATLANTA_R_LV_1016/opensource/component_code/vendor/huawei/extra/build/build_script/kirin_kernel_release/kernel/include/linux/nfs_fs_i.h"
	.file	44 "/mnt/disk/jenkins/ci/workspace/chipset_Q_ATLANTA_R_LV_1016/opensource/component_code/vendor/huawei/extra/build/build_script/kirin_kernel_release/kernel/include/linux/rwlock_types.h"
	.file	45 "/mnt/disk/jenkins/ci/workspace/chipset_Q_ATLANTA_R_LV_1016/opensource/component_code/vendor/huawei/extra/build/build_script/kirin_kernel_release/kernel/include/linux/pid.h"
	.file	46 "/mnt/disk/jenkins/ci/workspace/chipset_Q_ATLANTA_R_LV_1016/opensource/component_code/vendor/huawei/extra/build/build_script/kirin_kernel_release/kernel/include/linux/cred.h"
	.file	47 "/mnt/disk/jenkins/ci/workspace/chipset_Q_ATLANTA_R_LV_1016/opensource/component_code/vendor/huawei/extra/build/build_script/kirin_kernel_release/kernel/include/linux/capability.h"
	.file	48 "/mnt/disk/jenkins/ci/workspace/chipset_Q_ATLANTA_R_LV_1016/opensource/component_code/vendor/huawei/extra/build/build_script/kirin_kernel_release/kernel/include/linux/refcount.h"
	.file	49 "/mnt/disk/jenkins/ci/workspace/chipset_Q_ATLANTA_R_LV_1016/opensource/component_code/vendor/huawei/extra/build/build_script/kirin_kernel_release/kernel/include/linux/key.h"
	.file	50 "/mnt/disk/jenkins/ci/workspace/chipset_Q_ATLANTA_R_LV_1016/opensource/component_code/vendor/huawei/extra/build/build_script/kirin_kernel_release/kernel/include/linux/rwsem.h"
	.file	51 "/mnt/disk/jenkins/ci/workspace/chipset_Q_ATLANTA_R_LV_1016/opensource/component_code/vendor/huawei/extra/build/build_script/kirin_kernel_release/kernel/include/linux/assoc_array.h"
	.file	52 "/mnt/disk/jenkins/ci/workspace/chipset_Q_ATLANTA_R_LV_1016/opensource/component_code/vendor/huawei/extra/build/build_script/kirin_kernel_release/kernel/include/linux/sched/user.h"
	.file	53 "/mnt/disk/jenkins/ci/workspace/chipset_Q_ATLANTA_R_LV_1016/opensource/component_code/vendor/huawei/extra/build/build_script/kirin_kernel_release/kernel/include/linux/errseq.h"
	.file	54 "/mnt/disk/jenkins/ci/workspace/chipset_Q_ATLANTA_R_LV_1016/opensource/component_code/vendor/huawei/extra/build/build_script/kirin_kernel_release/kernel/include/linux/kref.h"
	.file	55 "/mnt/disk/jenkins/ci/workspace/chipset_Q_ATLANTA_R_LV_1016/opensource/component_code/vendor/huawei/extra/build/build_script/kirin_kernel_release/kernel/include/linux/completion.h"
	.file	56 "/mnt/disk/jenkins/ci/workspace/chipset_Q_ATLANTA_R_LV_1016/opensource/component_code/vendor/huawei/extra/build/build_script/kirin_kernel_release/kernel/include/linux/export.h"
	.file	57 "/mnt/disk/jenkins/ci/workspace/chipset_Q_ATLANTA_R_LV_1016/opensource/component_code/vendor/huawei/extra/build/build_script/kirin_kernel_release/kernel/include/linux/cfi.h"
	.file	58 "/mnt/disk/jenkins/ci/workspace/chipset_Q_ATLANTA_R_LV_1016/opensource/component_code/vendor/huawei/extra/build/build_script/kirin_kernel_release/kernel/include/linux/moduleparam.h"
	.file	59 "/mnt/disk/jenkins/ci/workspace/chipset_Q_ATLANTA_R_LV_1016/opensource/component_code/vendor/huawei/extra/build/build_script/kirin_kernel_release/kernel/arch/arm64/include/asm/extable.h"
	.file	60 "/mnt/disk/jenkins/ci/workspace/chipset_Q_ATLANTA_R_LV_1016/opensource/component_code/vendor/huawei/extra/build/build_script/kirin_kernel_release/kernel/include/linux/rbtree_latch.h"
	.file	61 "/mnt/disk/jenkins/ci/workspace/chipset_Q_ATLANTA_R_LV_1016/opensource/component_code/vendor/huawei/extra/build/build_script/kirin_kernel_release/kernel/include/uapi/linux/elf.h"
	.file	62 "/mnt/disk/jenkins/ci/workspace/chipset_Q_ATLANTA_R_LV_1016/opensource/component_code/vendor/huawei/extra/build/build_script/kirin_kernel_release/kernel/arch/arm64/include/asm/module.h"
	.file	63 "/mnt/disk/jenkins/ci/workspace/chipset_Q_ATLANTA_R_LV_1016/opensource/component_code/vendor/huawei/extra/build/build_script/kirin_kernel_release/kernel/include/asm-generic/bug.h"
	.file	64 "/mnt/disk/jenkins/ci/workspace/chipset_Q_ATLANTA_R_LV_1016/opensource/component_code/vendor/huawei/extra/build/build_script/kirin_kernel_release/kernel/include/linux/tracepoint-defs.h"
	.file	65 "/mnt/disk/jenkins/ci/workspace/chipset_Q_ATLANTA_R_LV_1016/opensource/component_code/vendor/huawei/extra/build/build_script/kirin_kernel_release/kernel/include/linux/jump_label.h"
	.file	66 "/mnt/disk/jenkins/ci/workspace/chipset_Q_ATLANTA_R_LV_1016/opensource/component_code/vendor/huawei/extra/build/build_script/kirin_kernel_release/kernel/include/linux/lockdep.h"
	.file	67 "/mnt/disk/jenkins/ci/workspace/chipset_Q_ATLANTA_R_LV_1016/opensource/component_code/vendor/huawei/extra/build/build_script/kirin_kernel_release/kernel/include/linux/quota.h"
	.file	68 "/mnt/disk/jenkins/ci/workspace/chipset_Q_ATLANTA_R_LV_1016/opensource/component_code/vendor/huawei/extra/build/build_script/kirin_kernel_release/kernel/include/linux/projid.h"
	.file	69 "/mnt/disk/jenkins/ci/workspace/chipset_Q_ATLANTA_R_LV_1016/opensource/component_code/vendor/huawei/extra/build/build_script/kirin_kernel_release/kernel/include/linux/time64.h"
	.file	70 "/mnt/disk/jenkins/ci/workspace/chipset_Q_ATLANTA_R_LV_1016/opensource/component_code/vendor/huawei/extra/build/build_script/kirin_kernel_release/kernel/include/linux/shrinker.h"
	.file	71 "/mnt/disk/jenkins/ci/workspace/chipset_Q_ATLANTA_R_LV_1016/opensource/component_code/vendor/huawei/extra/build/build_script/kirin_kernel_release/kernel/include/linux/genhd.h"
	.file	72 "/mnt/disk/jenkins/ci/workspace/chipset_Q_ATLANTA_R_LV_1016/opensource/component_code/vendor/huawei/extra/build/build_script/kirin_kernel_release/kernel/include/linux/device.h"
	.file	73 "/mnt/disk/jenkins/ci/workspace/chipset_Q_ATLANTA_R_LV_1016/opensource/component_code/vendor/huawei/extra/build/build_script/kirin_kernel_release/kernel/include/linux/pm.h"
	.file	74 "/mnt/disk/jenkins/ci/workspace/chipset_Q_ATLANTA_R_LV_1016/opensource/component_code/vendor/huawei/extra/build/build_script/kirin_kernel_release/kernel/include/linux/pm_wakeup.h"
	.file	75 "/mnt/disk/jenkins/ci/workspace/chipset_Q_ATLANTA_R_LV_1016/opensource/component_code/vendor/huawei/extra/build/build_script/kirin_kernel_release/kernel/include/linux/timer.h"
	.file	76 "/mnt/disk/jenkins/ci/workspace/chipset_Q_ATLANTA_R_LV_1016/opensource/component_code/vendor/huawei/extra/build/build_script/kirin_kernel_release/kernel/include/linux/workqueue.h"
	.file	77 "/mnt/disk/jenkins/ci/workspace/chipset_Q_ATLANTA_R_LV_1016/opensource/component_code/vendor/huawei/extra/build/build_script/kirin_kernel_release/kernel/include/linux/pinctrl/devinfo.h"
	.file	78 "/mnt/disk/jenkins/ci/workspace/chipset_Q_ATLANTA_R_LV_1016/opensource/component_code/vendor/huawei/extra/build/build_script/kirin_kernel_release/kernel/include/linux/dma-mapping.h"
	.file	79 "/mnt/disk/jenkins/ci/workspace/chipset_Q_ATLANTA_R_LV_1016/opensource/component_code/vendor/huawei/extra/build/build_script/kirin_kernel_release/kernel/include/linux/scatterlist.h"
	.file	80 "/mnt/disk/jenkins/ci/workspace/chipset_Q_ATLANTA_R_LV_1016/opensource/component_code/vendor/huawei/extra/build/build_script/kirin_kernel_release/kernel/include/linux/dma-direction.h"
	.file	81 "/mnt/disk/jenkins/ci/workspace/chipset_Q_ATLANTA_R_LV_1016/opensource/component_code/vendor/huawei/extra/build/build_script/kirin_kernel_release/kernel/arch/arm64/include/asm/device.h"
	.file	82 "/mnt/disk/jenkins/ci/workspace/chipset_Q_ATLANTA_R_LV_1016/opensource/component_code/vendor/huawei/extra/build/build_script/kirin_kernel_release/kernel/include/linux/klist.h"
	.file	83 "/mnt/disk/jenkins/ci/workspace/chipset_Q_ATLANTA_R_LV_1016/opensource/component_code/vendor/huawei/extra/build/build_script/kirin_kernel_release/kernel/include/linux/percpu-refcount.h"
	.file	84 "/mnt/disk/jenkins/ci/workspace/chipset_Q_ATLANTA_R_LV_1016/opensource/component_code/vendor/huawei/extra/build/build_script/kirin_kernel_release/kernel/include/linux/blkdev.h"
	.file	85 "/mnt/disk/jenkins/ci/workspace/chipset_Q_ATLANTA_R_LV_1016/opensource/component_code/vendor/huawei/extra/build/build_script/kirin_kernel_release/kernel/include/linux/smp.h"
	.file	86 "/mnt/disk/jenkins/ci/workspace/chipset_Q_ATLANTA_R_LV_1016/opensource/component_code/vendor/huawei/extra/build/build_script/kirin_kernel_release/kernel/include/linux/blk_types.h"
	.file	87 "/mnt/disk/jenkins/ci/workspace/chipset_Q_ATLANTA_R_LV_1016/opensource/component_code/vendor/huawei/extra/build/build_script/kirin_kernel_release/kernel/include/linux/bvec.h"
	.file	88 "/mnt/disk/jenkins/ci/workspace/chipset_Q_ATLANTA_R_LV_1016/opensource/component_code/vendor/huawei/extra/build/build_script/kirin_kernel_release/kernel/include/uapi/linux/time.h"
	.file	89 "/mnt/disk/jenkins/ci/workspace/chipset_Q_ATLANTA_R_LV_1016/opensource/component_code/vendor/huawei/extra/build/build_script/kirin_kernel_release/kernel/include/linux/iocontext.h"
	.file	90 "/mnt/disk/jenkins/ci/workspace/chipset_Q_ATLANTA_R_LV_1016/opensource/component_code/vendor/huawei/extra/build/build_script/kirin_kernel_release/kernel/include/linux/bio.h"
	.file	91 "/mnt/disk/jenkins/ci/workspace/chipset_Q_ATLANTA_R_LV_1016/opensource/component_code/vendor/huawei/extra/build/build_script/kirin_kernel_release/kernel/include/linux/mempool.h"
	.file	92 "/mnt/disk/jenkins/ci/workspace/chipset_Q_ATLANTA_R_LV_1016/opensource/component_code/vendor/huawei/extra/build/build_script/kirin_kernel_release/kernel/include/linux/elevator.h"
	.file	93 "/mnt/disk/jenkins/ci/workspace/chipset_Q_ATLANTA_R_LV_1016/opensource/component_code/vendor/huawei/extra/build/build_script/kirin_kernel_release/kernel/include/linux/blk-mq.h"
	.file	94 "/mnt/disk/jenkins/ci/workspace/chipset_Q_ATLANTA_R_LV_1016/opensource/component_code/vendor/huawei/extra/build/build_script/kirin_kernel_release/kernel/include/linux/sbitmap.h"
	.file	95 "/mnt/disk/jenkins/ci/workspace/chipset_Q_ATLANTA_R_LV_1016/opensource/component_code/vendor/huawei/extra/build/build_script/kirin_kernel_release/kernel/include/linux/srcutree.h"
	.file	96 "/mnt/disk/jenkins/ci/workspace/chipset_Q_ATLANTA_R_LV_1016/opensource/component_code/vendor/huawei/extra/build/build_script/kirin_kernel_release/kernel/include/linux/rcu_segcblist.h"
	.file	97 "/mnt/disk/jenkins/ci/workspace/chipset_Q_ATLANTA_R_LV_1016/opensource/component_code/vendor/huawei/extra/build/build_script/kirin_kernel_release/kernel/include/linux/notifier.h"
	.file	98 "/mnt/disk/jenkins/ci/workspace/chipset_Q_ATLANTA_R_LV_1016/opensource/component_code/vendor/huawei/extra/build/build_script/kirin_kernel_release/kernel/include/linux/backing-dev-defs.h"
	.file	99 "/mnt/disk/jenkins/ci/workspace/chipset_Q_ATLANTA_R_LV_1016/opensource/component_code/vendor/huawei/extra/build/build_script/kirin_kernel_release/kernel/include/linux/percpu_counter.h"
	.file	100 "/mnt/disk/jenkins/ci/workspace/chipset_Q_ATLANTA_R_LV_1016/opensource/component_code/vendor/huawei/extra/build/build_script/kirin_kernel_release/kernel/include/linux/flex_proportions.h"
	.file	101 "/mnt/disk/jenkins/ci/workspace/chipset_Q_ATLANTA_R_LV_1016/opensource/component_code/vendor/huawei/extra/build/build_script/kirin_kernel_release/kernel/include/linux/bsg.h"
	.file	102 "/mnt/disk/jenkins/ci/workspace/chipset_Q_ATLANTA_R_LV_1016/opensource/component_code/vendor/huawei/extra/build/build_script/kirin_kernel_release/kernel/include/linux/rcu_sync.h"
	.file	103 "/mnt/disk/jenkins/ci/workspace/chipset_Q_ATLANTA_R_LV_1016/opensource/component_code/vendor/huawei/extra/build/build_script/kirin_kernel_release/kernel/include/linux/percpu-rwsem.h"
	.file	104 "/mnt/disk/jenkins/ci/workspace/chipset_Q_ATLANTA_R_LV_1016/opensource/component_code/vendor/huawei/extra/build/build_script/kirin_kernel_release/kernel/include/linux/rcuwait.h"
	.file	105 "/mnt/disk/jenkins/ci/workspace/chipset_Q_ATLANTA_R_LV_1016/opensource/component_code/vendor/huawei/extra/build/build_script/kirin_kernel_release/kernel/include/linux/uuid.h"
	.file	106 "/mnt/disk/jenkins/ci/workspace/chipset_Q_ATLANTA_R_LV_1016/opensource/component_code/vendor/huawei/extra/build/build_script/kirin_kernel_release/kernel/include/linux/list_lru.h"
	.file	107 "/mnt/disk/jenkins/ci/workspace/chipset_Q_ATLANTA_R_LV_1016/opensource/component_code/vendor/huawei/extra/build/build_script/kirin_kernel_release/kernel/include/linux/delayed_call.h"
	.file	108 "/mnt/disk/jenkins/ci/workspace/chipset_Q_ATLANTA_R_LV_1016/opensource/component_code/vendor/huawei/extra/build/build_script/kirin_kernel_release/kernel/include/linux/stat.h"
	.file	109 "/mnt/disk/jenkins/ci/workspace/chipset_Q_ATLANTA_R_LV_1016/opensource/component_code/vendor/huawei/extra/build/build_script/kirin_kernel_release/kernel/include/uapi/linux/fiemap.h"
	.file	110 "/mnt/disk/jenkins/ci/workspace/chipset_Q_ATLANTA_R_LV_1016/opensource/component_code/vendor/huawei/extra/build/build_script/kirin_kernel_release/kernel/include/linux/migrate_mode.h"
	.file	111 "/mnt/disk/jenkins/ci/workspace/chipset_Q_ATLANTA_R_LV_1016/opensource/component_code/vendor/huawei/extra/build/build_script/kirin_kernel_release/kernel/include/linux/mmzone.h"
	.file	112 "/mnt/disk/jenkins/ci/workspace/chipset_Q_ATLANTA_R_LV_1016/opensource/component_code/vendor/huawei/extra/build/build_script/kirin_kernel_release/kernel/include/linux/memremap.h"
	.file	113 "/mnt/disk/jenkins/ci/workspace/chipset_Q_ATLANTA_R_LV_1016/opensource/component_code/vendor/huawei/extra/build/build_script/kirin_kernel_release/kernel/include/linux/ioport.h"
	.file	114 "/mnt/disk/jenkins/ci/workspace/chipset_Q_ATLANTA_R_LV_1016/opensource/component_code/vendor/huawei/extra/build/build_script/kirin_kernel_release/kernel/arch/arm64/include/asm/page.h"
	.file	115 "/mnt/disk/jenkins/ci/workspace/chipset_Q_ATLANTA_R_LV_1016/opensource/component_code/vendor/huawei/extra/build/build_script/kirin_kernel_release/kernel/include/linux/mm_types_task.h"
	.file	116 "/mnt/disk/jenkins/ci/workspace/chipset_Q_ATLANTA_R_LV_1016/opensource/component_code/vendor/huawei/extra/build/build_script/kirin_kernel_release/kernel/arch/arm64/include/asm/mmu.h"
	.file	117 "/mnt/disk/jenkins/ci/workspace/chipset_Q_ATLANTA_R_LV_1016/opensource/component_code/vendor/huawei/extra/build/build_script/kirin_kernel_release/kernel/include/linux/uprobes.h"
	.file	118 "/mnt/disk/jenkins/ci/workspace/chipset_Q_ATLANTA_R_LV_1016/opensource/component_code/vendor/huawei/extra/build/build_script/kirin_kernel_release/kernel/include/linux/restart_block.h"
	.file	119 "/mnt/disk/jenkins/ci/workspace/chipset_Q_ATLANTA_R_LV_1016/opensource/component_code/vendor/huawei/extra/build/build_script/kirin_kernel_release/kernel/arch/arm64/include/asm/compat.h"
	.file	120 "/mnt/disk/jenkins/ci/workspace/chipset_Q_ATLANTA_R_LV_1016/opensource/component_code/vendor/huawei/extra/build/build_script/kirin_kernel_release/kernel/include/uapi/asm-generic/signal.h"
	.file	121 "/mnt/disk/jenkins/ci/workspace/chipset_Q_ATLANTA_R_LV_1016/opensource/component_code/vendor/huawei/extra/build/build_script/kirin_kernel_release/kernel/include/linux/signal_types.h"
	.file	122 "/mnt/disk/jenkins/ci/workspace/chipset_Q_ATLANTA_R_LV_1016/opensource/component_code/vendor/huawei/extra/build/build_script/kirin_kernel_release/kernel/include/linux/seccomp.h"
	.file	123 "/mnt/disk/jenkins/ci/workspace/chipset_Q_ATLANTA_R_LV_1016/opensource/component_code/vendor/huawei/extra/build/build_script/kirin_kernel_release/kernel/include/uapi/asm-generic/siginfo.h"
	.file	124 "/mnt/disk/jenkins/ci/workspace/chipset_Q_ATLANTA_R_LV_1016/opensource/component_code/vendor/huawei/extra/build/build_script/kirin_kernel_release/kernel/include/linux/task_io_accounting.h"
	.file	125 "/mnt/disk/jenkins/ci/workspace/chipset_Q_ATLANTA_R_LV_1016/opensource/component_code/vendor/huawei/extra/build/build_script/kirin_kernel_release/kernel/include/linux/nodemask.h"
	.file	126 "/mnt/disk/jenkins/ci/workspace/chipset_Q_ATLANTA_R_LV_1016/opensource/component_code/vendor/huawei/extra/build/build_script/kirin_kernel_release/kernel/arch/arm64/include/asm/processor.h"
	.file	127 "/mnt/disk/jenkins/ci/workspace/chipset_Q_ATLANTA_R_LV_1016/opensource/component_code/vendor/huawei/extra/build/build_script/kirin_kernel_release/kernel/drivers/scsi/ufs/hisi_ufs_bkops.c"
	.file	128 "/mnt/disk/jenkins/ci/workspace/chipset_Q_ATLANTA_R_LV_1016/opensource/component_code/vendor/huawei/extra/build/build_script/kirin_kernel_release/kernel/arch/arm64/include/uapi/asm/ptrace.h"
	.file	129 "/mnt/disk/jenkins/ci/workspace/chipset_Q_ATLANTA_R_LV_1016/opensource/component_code/vendor/huawei/extra/build/build_script/kirin_kernel_release/kernel/arch/arm64/include/asm/fpsimd.h"
	.file	130 "/mnt/disk/jenkins/ci/workspace/chipset_Q_ATLANTA_R_LV_1016/opensource/component_code/vendor/huawei/extra/build/build_script/kirin_kernel_release/kernel/include/scsi/scsi_device.h"
	.file	131 "/mnt/disk/jenkins/ci/workspace/chipset_Q_ATLANTA_R_LV_1016/opensource/component_code/vendor/huawei/extra/build/build_script/kirin_kernel_release/kernel/include/scsi/scsi_request.h"
	.file	132 "/mnt/disk/jenkins/ci/workspace/chipset_Q_ATLANTA_R_LV_1016/opensource/component_code/vendor/huawei/extra/build/build_script/kirin_kernel_release/kernel/include/scsi/scsi_cmnd.h"
	.file	133 "/mnt/disk/jenkins/ci/workspace/chipset_Q_ATLANTA_R_LV_1016/opensource/component_code/vendor/huawei/extra/build/build_script/kirin_kernel_release/kernel/drivers/scsi/ufs/ufs.h"
	.file	134 "/mnt/disk/jenkins/ci/workspace/chipset_Q_ATLANTA_R_LV_1016/opensource/component_code/vendor/huawei/extra/build/build_script/kirin_kernel_release/kernel/drivers/scsi/ufs/ufs-hisi.h"
	.file	135 "/mnt/disk/jenkins/ci/workspace/chipset_Q_ATLANTA_R_LV_1016/opensource/component_code/vendor/huawei/extra/build/build_script/kirin_kernel_release/kernel/include/linux/kthread.h"
	.file	136 "/mnt/disk/jenkins/ci/workspace/chipset_Q_ATLANTA_R_LV_1016/opensource/component_code/vendor/huawei/extra/build/build_script/kirin_kernel_release/kernel/include/linux/hisi-bkops-core.h"
	.file	137 "/mnt/disk/jenkins/ci/workspace/chipset_Q_ATLANTA_R_LV_1016/opensource/component_code/vendor/huawei/extra/build/build_script/kirin_kernel_release/kernel/drivers/scsi/ufs/hisi_ufs_bkops.h"
	.file	138 "/mnt/disk/jenkins/ci/workspace/chipset_Q_ATLANTA_R_LV_1016/opensource/component_code/vendor/huawei/extra/build/build_script/kirin_kernel_release/kernel/include/linux/stddef.h"
	.file	139 "/mnt/disk/jenkins/ci/workspace/chipset_Q_ATLANTA_R_LV_1016/opensource/component_code/vendor/huawei/extra/build/build_script/kirin_kernel_release/kernel/include/uapi/scsi/ufs/ufs.h"
	.section	.text.ufshcd_bkops_status_query,"ax",@progbits
	.hidden	ufshcd_bkops_status_query // -- Begin function ufshcd_bkops_status_query
	.globl	ufshcd_bkops_status_query
	.p2align	2
	.type	ufshcd_bkops_status_query,@function
ufshcd_bkops_status_query:              // @ufshcd_bkops_status_query
.Lfunc_begin0:
	.loc	127 148 0               // /mnt/disk/jenkins/ci/workspace/chipset_Q_ATLANTA_R_LV_1016/opensource/component_code/vendor/huawei/extra/build/build_script/kirin_kernel_release/kernel/drivers/scsi/ufs/hisi_ufs_bkops.c:148:0
	.cfi_sections .debug_frame
	.cfi_startproc
// %bb.0:
	stp	x20, x19, [sp, #-32]!   // 16-byte Folded Spill
	stp	x29, x30, [sp, #16]     // 16-byte Folded Spill
	add	x29, sp, #16            // =16
	.cfi_def_cfa w29, 16
	.cfi_offset w30, -8
	.cfi_offset w29, -16
	.cfi_offset w19, -24
	.cfi_offset w20, -32
	//DEBUG_VALUE: ufshcd_bkops_status_query:bkops_data <- $x0
	//DEBUG_VALUE: ufshcd_bkops_status_query:status <- $x1
	mov	x19, x0
.Ltmp0:
	//DEBUG_VALUE: ufshcd_bkops_status_query:hba <- $x19
	//DEBUG_VALUE: ufshcd_bkops_status_query:err <- 0
	//DEBUG_VALUE: ufshcd_bkops_status_query:bkops_data <- $x19
	.loc	127 155 27 prologue_end // /mnt/disk/jenkins/ci/workspace/chipset_Q_ATLANTA_R_LV_1016/opensource/component_code/vendor/huawei/extra/build/build_script/kirin_kernel_release/kernel/drivers/scsi/ufs/hisi_ufs_bkops.c:155:27
	ldr	x0, [x0, #88]
	mov	x20, x1
.Ltmp1:
	//DEBUG_VALUE: pm_runtime_get_sync:dev <- $x0
	//DEBUG_VALUE: ufshcd_bkops_status_query:status <- $x20
	.file	140 "/mnt/disk/jenkins/ci/workspace/chipset_Q_ATLANTA_R_LV_1016/opensource/component_code/vendor/huawei/extra/build/build_script/kirin_kernel_release/kernel/include/linux/pm_runtime.h"
	.loc	140 225 9               // /mnt/disk/jenkins/ci/workspace/chipset_Q_ATLANTA_R_LV_1016/opensource/component_code/vendor/huawei/extra/build/build_script/kirin_kernel_release/kernel/include/linux/pm_runtime.h:225:9
	orr	w1, wzr, #0x4
	bl	__pm_runtime_resume
.Ltmp2:
	.loc	127 156 13              // /mnt/disk/jenkins/ci/workspace/chipset_Q_ATLANTA_R_LV_1016/opensource/component_code/vendor/huawei/extra/build/build_script/kirin_kernel_release/kernel/drivers/scsi/ufs/hisi_ufs_bkops.c:156:13
	ldr	x8, [x19, #3416]
	.loc	127 156 8 is_stmt 0     // /mnt/disk/jenkins/ci/workspace/chipset_Q_ATLANTA_R_LV_1016/opensource/component_code/vendor/huawei/extra/build/build_script/kirin_kernel_release/kernel/drivers/scsi/ufs/hisi_ufs_bkops.c:156:8
	mov	x0, x19
	mov	x1, x20
.Ltmp3:
	//DEBUG_VALUE: ufshcd_bkops_status_query:status <- $x1
	.loc	127 156 32              // /mnt/disk/jenkins/ci/workspace/chipset_Q_ATLANTA_R_LV_1016/opensource/component_code/vendor/huawei/extra/build/build_script/kirin_kernel_release/kernel/drivers/scsi/ufs/hisi_ufs_bkops.c:156:32
	ldr	x8, [x8]
	.loc	127 156 8               // /mnt/disk/jenkins/ci/workspace/chipset_Q_ATLANTA_R_LV_1016/opensource/component_code/vendor/huawei/extra/build/build_script/kirin_kernel_release/kernel/drivers/scsi/ufs/hisi_ufs_bkops.c:156:8
	blr	x8
.Ltmp4:
	.loc	127 157 27 is_stmt 1    // /mnt/disk/jenkins/ci/workspace/chipset_Q_ATLANTA_R_LV_1016/opensource/component_code/vendor/huawei/extra/build/build_script/kirin_kernel_release/kernel/drivers/scsi/ufs/hisi_ufs_bkops.c:157:27
	ldr	x8, [x19, #88]
	.loc	127 156 8               // /mnt/disk/jenkins/ci/workspace/chipset_Q_ATLANTA_R_LV_1016/opensource/component_code/vendor/huawei/extra/build/build_script/kirin_kernel_release/kernel/drivers/scsi/ufs/hisi_ufs_bkops.c:156:8
	mov	w19, w0
.Ltmp5:
	//DEBUG_VALUE: pm_runtime_put_sync:dev <- $x8
	//DEBUG_VALUE: ufshcd_bkops_status_query:err <- $w19
	.loc	140 241 9               // /mnt/disk/jenkins/ci/workspace/chipset_Q_ATLANTA_R_LV_1016/opensource/component_code/vendor/huawei/extra/build/build_script/kirin_kernel_release/kernel/include/linux/pm_runtime.h:241:9
	orr	w1, wzr, #0x4
	mov	x0, x8
	bl	__pm_runtime_idle
.Ltmp6:
	.loc	127 172 6               // /mnt/disk/jenkins/ci/workspace/chipset_Q_ATLANTA_R_LV_1016/opensource/component_code/vendor/huawei/extra/build/build_script/kirin_kernel_release/kernel/drivers/scsi/ufs/hisi_ufs_bkops.c:172:6
	cbz	w19, .LBB0_2
.Ltmp7:
// %bb.1:
	//DEBUG_VALUE: ufshcd_bkops_status_query:err <- $w19
	.loc	127 173 3               // /mnt/disk/jenkins/ci/workspace/chipset_Q_ATLANTA_R_LV_1016/opensource/component_code/vendor/huawei/extra/build/build_script/kirin_kernel_release/kernel/drivers/scsi/ufs/hisi_ufs_bkops.c:173:3
	adrp	x0, .L.str
	add	x0, x0, :lo12:.L.str
	bl	printk
.Ltmp8:
.LBB0_2:
	//DEBUG_VALUE: ufshcd_bkops_status_query:err <- $w19
	.loc	127 175 2               // /mnt/disk/jenkins/ci/workspace/chipset_Q_ATLANTA_R_LV_1016/opensource/component_code/vendor/huawei/extra/build/build_script/kirin_kernel_release/kernel/drivers/scsi/ufs/hisi_ufs_bkops.c:175:2
	ldp	x29, x30, [sp, #16]     // 16-byte Folded Reload
	mov	w0, w19
	ldp	x20, x19, [sp], #32     // 16-byte Folded Reload
.Ltmp9:
	ret
.Ltmp10:
.Lfunc_end0:
	.size	ufshcd_bkops_status_query, .Lfunc_end0-ufshcd_bkops_status_query
	.cfi_endproc
                                        // -- End function
	.section	.text.ufshcd_bkops_start_stop,"ax",@progbits
	.hidden	ufshcd_bkops_start_stop // -- Begin function ufshcd_bkops_start_stop
	.globl	ufshcd_bkops_start_stop
	.p2align	2
	.type	ufshcd_bkops_start_stop,@function
ufshcd_bkops_start_stop:                // @ufshcd_bkops_start_stop
.Lfunc_begin1:
	.loc	127 228 0               // /mnt/disk/jenkins/ci/workspace/chipset_Q_ATLANTA_R_LV_1016/opensource/component_code/vendor/huawei/extra/build/build_script/kirin_kernel_release/kernel/drivers/scsi/ufs/hisi_ufs_bkops.c:228:0
	.cfi_startproc
// %bb.0:
	str	x21, [sp, #-48]!        // 8-byte Folded Spill
	stp	x20, x19, [sp, #16]     // 16-byte Folded Spill
	stp	x29, x30, [sp, #32]     // 16-byte Folded Spill
	add	x29, sp, #32            // =32
	.cfi_def_cfa w29, 16
	.cfi_offset w30, -8
	.cfi_offset w29, -16
	.cfi_offset w19, -24
	.cfi_offset w20, -32
	.cfi_offset w21, -48
	//DEBUG_VALUE: ufshcd_bkops_start_stop:bkops_data <- $x0
	//DEBUG_VALUE: ufshcd_bkops_start_stop:start <- $w1
	mov	x19, x0
	//DEBUG_VALUE: ufshcd_bkops_start_stop:start <- $w1
.Ltmp11:
	//DEBUG_VALUE: ufshcd_bkops_start_stop:bkops_data <- $x19
	.loc	127 232 6 prologue_end  // /mnt/disk/jenkins/ci/workspace/chipset_Q_ATLANTA_R_LV_1016/opensource/component_code/vendor/huawei/extra/build/build_script/kirin_kernel_release/kernel/drivers/scsi/ufs/hisi_ufs_bkops.c:232:6
	cbz	w1, .LBB1_3
.Ltmp12:
// %bb.1:
	//DEBUG_VALUE: ufshcd_bkops_start_stop:bkops_data <- $x19
	//DEBUG_VALUE: ufshcd_bkops_start_stop:start <- $w1
	//DEBUG_VALUE: ufshcd_bkops_stop:hba <- $x19
	//DEBUG_VALUE: ufshcd_bkops_start_stop:hba <- $x19
	//DEBUG_VALUE: ufshcd_bkops_start:hba <- $x19
	.loc	127 182 27              // /mnt/disk/jenkins/ci/workspace/chipset_Q_ATLANTA_R_LV_1016/opensource/component_code/vendor/huawei/extra/build/build_script/kirin_kernel_release/kernel/drivers/scsi/ufs/hisi_ufs_bkops.c:182:27
	ldr	x0, [x19, #88]
.Ltmp13:
	//DEBUG_VALUE: pm_runtime_get_sync:dev <- $x0
	.loc	140 225 9               // /mnt/disk/jenkins/ci/workspace/chipset_Q_ATLANTA_R_LV_1016/opensource/component_code/vendor/huawei/extra/build/build_script/kirin_kernel_release/kernel/include/linux/pm_runtime.h:225:9
	orr	w1, wzr, #0x4
.Ltmp14:
	bl	__pm_runtime_resume
.Ltmp15:
	.loc	127 183 13              // /mnt/disk/jenkins/ci/workspace/chipset_Q_ATLANTA_R_LV_1016/opensource/component_code/vendor/huawei/extra/build/build_script/kirin_kernel_release/kernel/drivers/scsi/ufs/hisi_ufs_bkops.c:183:13
	ldr	x8, [x19, #3416]
	.loc	127 183 8 is_stmt 0     // /mnt/disk/jenkins/ci/workspace/chipset_Q_ATLANTA_R_LV_1016/opensource/component_code/vendor/huawei/extra/build/build_script/kirin_kernel_release/kernel/drivers/scsi/ufs/hisi_ufs_bkops.c:183:8
	mov	x0, x19
	.loc	127 183 32              // /mnt/disk/jenkins/ci/workspace/chipset_Q_ATLANTA_R_LV_1016/opensource/component_code/vendor/huawei/extra/build/build_script/kirin_kernel_release/kernel/drivers/scsi/ufs/hisi_ufs_bkops.c:183:32
	ldr	x8, [x8, #8]
	.loc	127 183 8               // /mnt/disk/jenkins/ci/workspace/chipset_Q_ATLANTA_R_LV_1016/opensource/component_code/vendor/huawei/extra/build/build_script/kirin_kernel_release/kernel/drivers/scsi/ufs/hisi_ufs_bkops.c:183:8
	blr	x8
	.loc	127 184 27 is_stmt 1    // /mnt/disk/jenkins/ci/workspace/chipset_Q_ATLANTA_R_LV_1016/opensource/component_code/vendor/huawei/extra/build/build_script/kirin_kernel_release/kernel/drivers/scsi/ufs/hisi_ufs_bkops.c:184:27
	ldr	x8, [x19, #88]
	.loc	127 183 8               // /mnt/disk/jenkins/ci/workspace/chipset_Q_ATLANTA_R_LV_1016/opensource/component_code/vendor/huawei/extra/build/build_script/kirin_kernel_release/kernel/drivers/scsi/ufs/hisi_ufs_bkops.c:183:8
	mov	w19, w0
.Ltmp16:
	//DEBUG_VALUE: ufshcd_bkops_start:ret <- $w19
	//DEBUG_VALUE: pm_runtime_put_sync:dev <- $x8
	.loc	140 241 9               // /mnt/disk/jenkins/ci/workspace/chipset_Q_ATLANTA_R_LV_1016/opensource/component_code/vendor/huawei/extra/build/build_script/kirin_kernel_release/kernel/include/linux/pm_runtime.h:241:9
	orr	w1, wzr, #0x4
	mov	x0, x8
	bl	__pm_runtime_idle
.Ltmp17:
	.loc	127 185 6               // /mnt/disk/jenkins/ci/workspace/chipset_Q_ATLANTA_R_LV_1016/opensource/component_code/vendor/huawei/extra/build/build_script/kirin_kernel_release/kernel/drivers/scsi/ufs/hisi_ufs_bkops.c:185:6
	cbz	w19, .LBB1_6
.Ltmp18:
// %bb.2:
	//DEBUG_VALUE: ufshcd_bkops_start:ret <- $w19
	.loc	127 186 3               // /mnt/disk/jenkins/ci/workspace/chipset_Q_ATLANTA_R_LV_1016/opensource/component_code/vendor/huawei/extra/build/build_script/kirin_kernel_release/kernel/drivers/scsi/ufs/hisi_ufs_bkops.c:186:3
	adrp	x0, .L.str.2
	add	x0, x0, :lo12:.L.str.2
	bl	printk
	b	.LBB1_6
.Ltmp19:
.LBB1_3:
	//DEBUG_VALUE: ufshcd_bkops_start_stop:bkops_data <- $x19
	//DEBUG_VALUE: ufshcd_bkops_start_stop:start <- $w1
	//DEBUG_VALUE: ufshcd_bkops_stop:ret <- 0
	.loc	127 195 34              // /mnt/disk/jenkins/ci/workspace/chipset_Q_ATLANTA_R_LV_1016/opensource/component_code/vendor/huawei/extra/build/build_script/kirin_kernel_release/kernel/drivers/scsi/ufs/hisi_ufs_bkops.c:195:34
	ldr	x21, [x19, #3424]
.Ltmp20:
	//DEBUG_VALUE: ufshcd_bkops_stop:bkops <- $x21
	.loc	127 196 47              // /mnt/disk/jenkins/ci/workspace/chipset_Q_ATLANTA_R_LV_1016/opensource/component_code/vendor/huawei/extra/build/build_script/kirin_kernel_release/kernel/drivers/scsi/ufs/hisi_ufs_bkops.c:196:47
	add	x19, x21, #256          // =256
.Ltmp21:
	//DEBUG_VALUE: ufshcd_bkops_stop:bkops_stats_p <- $x19
	.file	141 "/mnt/disk/jenkins/ci/workspace/chipset_Q_ATLANTA_R_LV_1016/opensource/component_code/vendor/huawei/extra/build/build_script/kirin_kernel_release/kernel/include/linux/timekeeping.h"
	.loc	141 218 9               // /mnt/disk/jenkins/ci/workspace/chipset_Q_ATLANTA_R_LV_1016/opensource/component_code/vendor/huawei/extra/build/build_script/kirin_kernel_release/kernel/include/linux/timekeeping.h:218:9
	bl	ktime_get
.Ltmp22:
	.loc	127 207 33              // /mnt/disk/jenkins/ci/workspace/chipset_Q_ATLANTA_R_LV_1016/opensource/component_code/vendor/huawei/extra/build/build_script/kirin_kernel_release/kernel/drivers/scsi/ufs/hisi_ufs_bkops.c:207:33
	ldr	w8, [x21, #264]
.Ltmp23:
	.loc	141 218 9               // /mnt/disk/jenkins/ci/workspace/chipset_Q_ATLANTA_R_LV_1016/opensource/component_code/vendor/huawei/extra/build/build_script/kirin_kernel_release/kernel/include/linux/timekeeping.h:218:9
	mov	x20, x0
.Ltmp24:
	//DEBUG_VALUE: ufshcd_bkops_stop:start_time <- $x20
	.loc	127 208 2               // /mnt/disk/jenkins/ci/workspace/chipset_Q_ATLANTA_R_LV_1016/opensource/component_code/vendor/huawei/extra/build/build_script/kirin_kernel_release/kernel/drivers/scsi/ufs/hisi_ufs_bkops.c:208:2
	mov	x0, x19
	.loc	127 207 33              // /mnt/disk/jenkins/ci/workspace/chipset_Q_ATLANTA_R_LV_1016/opensource/component_code/vendor/huawei/extra/build/build_script/kirin_kernel_release/kernel/drivers/scsi/ufs/hisi_ufs_bkops.c:207:33
	add	w8, w8, #1              // =1
	str	w8, [x21, #264]
	.loc	127 208 2               // /mnt/disk/jenkins/ci/workspace/chipset_Q_ATLANTA_R_LV_1016/opensource/component_code/vendor/huawei/extra/build/build_script/kirin_kernel_release/kernel/drivers/scsi/ufs/hisi_ufs_bkops.c:208:2
	bl	hisi_bkops_update_dur
.Ltmp25:
	.loc	141 218 9               // /mnt/disk/jenkins/ci/workspace/chipset_Q_ATLANTA_R_LV_1016/opensource/component_code/vendor/huawei/extra/build/build_script/kirin_kernel_release/kernel/include/linux/timekeeping.h:218:9
	bl	ktime_get
.Ltmp26:
	.loc	127 212 37              // /mnt/disk/jenkins/ci/workspace/chipset_Q_ATLANTA_R_LV_1016/opensource/component_code/vendor/huawei/extra/build/build_script/kirin_kernel_release/kernel/drivers/scsi/ufs/hisi_ufs_bkops.c:212:37
	ldr	x9, [x21, #352]
.Ltmp27:
	//DEBUG_VALUE: ufshcd_bkops_stop:stop_time <- $x0
	.loc	127 211 28              // /mnt/disk/jenkins/ci/workspace/chipset_Q_ATLANTA_R_LV_1016/opensource/component_code/vendor/huawei/extra/build/build_script/kirin_kernel_release/kernel/drivers/scsi/ufs/hisi_ufs_bkops.c:211:28
	sub	x8, x0, x20
.Ltmp28:
	//DEBUG_VALUE: ufshcd_bkops_stop:time_interval <- $x8
	.loc	127 212 6               // /mnt/disk/jenkins/ci/workspace/chipset_Q_ATLANTA_R_LV_1016/opensource/component_code/vendor/huawei/extra/build/build_script/kirin_kernel_release/kernel/drivers/scsi/ufs/hisi_ufs_bkops.c:212:6
	cmp	x8, x9
	b.ls	.LBB1_5
.Ltmp29:
// %bb.4:
	//DEBUG_VALUE: ufshcd_bkops_stop:time_interval <- $x8
	//DEBUG_VALUE: ufshcd_bkops_stop:stop_time <- $x0
	//DEBUG_VALUE: ufshcd_bkops_stop:start_time <- $x20
	//DEBUG_VALUE: ufshcd_bkops_stop:bkops_stats_p <- $x19
	//DEBUG_VALUE: ufshcd_bkops_stop:bkops <- $x21
	.loc	127 213 38              // /mnt/disk/jenkins/ci/workspace/chipset_Q_ATLANTA_R_LV_1016/opensource/component_code/vendor/huawei/extra/build/build_script/kirin_kernel_release/kernel/drivers/scsi/ufs/hisi_ufs_bkops.c:213:38
	str	x8, [x21, #352]
.Ltmp30:
.LBB1_5:
	//DEBUG_VALUE: ufshcd_bkops_stop:time_interval <- $x8
	//DEBUG_VALUE: ufshcd_bkops_stop:stop_time <- $x0
	//DEBUG_VALUE: ufshcd_bkops_stop:start_time <- $x20
	//DEBUG_VALUE: ufshcd_bkops_stop:bkops_stats_p <- $x19
	//DEBUG_VALUE: ufshcd_bkops_stop:bkops <- $x21
	.loc	127 217 21              // /mnt/disk/jenkins/ci/workspace/chipset_Q_ATLANTA_R_LV_1016/opensource/component_code/vendor/huawei/extra/build/build_script/kirin_kernel_release/kernel/drivers/scsi/ufs/hisi_ufs_bkops.c:217:21
	ldr	w9, [x21, #264]
	.loc	127 216 20              // /mnt/disk/jenkins/ci/workspace/chipset_Q_ATLANTA_R_LV_1016/opensource/component_code/vendor/huawei/extra/build/build_script/kirin_kernel_release/kernel/drivers/scsi/ufs/hisi_ufs_bkops.c:216:20
	ldr	x10, [x21, #360]
.Ltmp31:
	.loc	127 0 0 is_stmt 0       // /mnt/disk/jenkins/ci/workspace/chipset_Q_ATLANTA_R_LV_1016/opensource/component_code/vendor/huawei/extra/build/build_script/kirin_kernel_release/kernel/drivers/scsi/ufs/hisi_ufs_bkops.c:0:0
	mov	w19, wzr
.Ltmp32:
	.loc	127 217 38 is_stmt 1    // /mnt/disk/jenkins/ci/workspace/chipset_Q_ATLANTA_R_LV_1016/opensource/component_code/vendor/huawei/extra/build/build_script/kirin_kernel_release/kernel/drivers/scsi/ufs/hisi_ufs_bkops.c:217:38
	sub	w11, w9, #1             // =1
	.loc	127 217 44 is_stmt 0    // /mnt/disk/jenkins/ci/workspace/chipset_Q_ATLANTA_R_LV_1016/opensource/component_code/vendor/huawei/extra/build/build_script/kirin_kernel_release/kernel/drivers/scsi/ufs/hisi_ufs_bkops.c:217:44
	madd	x8, x10, x11, x8
.Ltmp33:
	.loc	127 218 19 is_stmt 1    // /mnt/disk/jenkins/ci/workspace/chipset_Q_ATLANTA_R_LV_1016/opensource/component_code/vendor/huawei/extra/build/build_script/kirin_kernel_release/kernel/drivers/scsi/ufs/hisi_ufs_bkops.c:218:19
	udiv	x8, x8, x9
	.loc	127 215 38              // /mnt/disk/jenkins/ci/workspace/chipset_Q_ATLANTA_R_LV_1016/opensource/component_code/vendor/huawei/extra/build/build_script/kirin_kernel_release/kernel/drivers/scsi/ufs/hisi_ufs_bkops.c:215:38
	str	x8, [x21, #360]
.Ltmp34:
	//DEBUG_VALUE: ufshcd_bkops_start_stop:ret <- 0
.LBB1_6:
	.loc	127 237 2               // /mnt/disk/jenkins/ci/workspace/chipset_Q_ATLANTA_R_LV_1016/opensource/component_code/vendor/huawei/extra/build/build_script/kirin_kernel_release/kernel/drivers/scsi/ufs/hisi_ufs_bkops.c:237:2
	mov	w0, w19
.Ltmp35:
	//DEBUG_VALUE: ufshcd_bkops_start_stop:ret <- undef
	ldp	x29, x30, [sp, #32]     // 16-byte Folded Reload
	ldp	x20, x19, [sp, #16]     // 16-byte Folded Reload
	ldr	x21, [sp], #48          // 8-byte Folded Reload
	ret
.Ltmp36:
.Lfunc_end1:
	.size	ufshcd_bkops_start_stop, .Lfunc_end1-ufshcd_bkops_start_stop
	.cfi_endproc
                                        // -- End function
	.section	.text.hisi_ufs_manual_bkops_config,"ax",@progbits
	.hidden	hisi_ufs_manual_bkops_config // -- Begin function hisi_ufs_manual_bkops_config
	.globl	hisi_ufs_manual_bkops_config
	.p2align	2
	.type	hisi_ufs_manual_bkops_config,@function
hisi_ufs_manual_bkops_config:           // @hisi_ufs_manual_bkops_config
.Lfunc_begin2:
	.loc	127 302 0               // /mnt/disk/jenkins/ci/workspace/chipset_Q_ATLANTA_R_LV_1016/opensource/component_code/vendor/huawei/extra/build/build_script/kirin_kernel_release/kernel/drivers/scsi/ufs/hisi_ufs_bkops.c:302:0
	.cfi_startproc
// %bb.0:
	sub	sp, sp, #112            // =112
	stp	x28, x27, [sp, #16]     // 16-byte Folded Spill
	stp	x26, x25, [sp, #32]     // 16-byte Folded Spill
	stp	x24, x23, [sp, #48]     // 16-byte Folded Spill
	stp	x22, x21, [sp, #64]     // 16-byte Folded Spill
	stp	x20, x19, [sp, #80]     // 16-byte Folded Spill
	stp	x29, x30, [sp, #96]     // 16-byte Folded Spill
	add	x29, sp, #96            // =96
	.cfi_def_cfa w29, 16
	.cfi_offset w30, -8
	.cfi_offset w29, -16
	.cfi_offset w19, -24
	.cfi_offset w20, -32
	.cfi_offset w21, -40
	.cfi_offset w22, -48
	.cfi_offset w23, -56
	.cfi_offset w24, -64
	.cfi_offset w25, -72
	.cfi_offset w26, -80
	.cfi_offset w27, -88
	.cfi_offset w28, -96
	//DEBUG_VALUE: hisi_ufs_manual_bkops_config:sdev <- $x0
.Ltmp37:
	//DEBUG_VALUE: hisi_ufs_is_bkops_supported:sdev <- $x0
	.loc	127 303 41 prologue_end // /mnt/disk/jenkins/ci/workspace/chipset_Q_ATLANTA_R_LV_1016/opensource/component_code/vendor/huawei/extra/build/build_script/kirin_kernel_release/kernel/drivers/scsi/ufs/hisi_ufs_bkops.c:303:41
	ldr	x26, [x0]
.Ltmp38:
	//DEBUG_VALUE: shost_priv:shost <- $x26
	//DEBUG_VALUE: hisi_ufs_is_bkops_supported:hba <- [DW_OP_plus_uconst 3312, DW_OP_stack_value] $x26
	.loc	127 307 6               // /mnt/disk/jenkins/ci/workspace/chipset_Q_ATLANTA_R_LV_1016/opensource/component_code/vendor/huawei/extra/build/build_script/kirin_kernel_release/kernel/drivers/scsi/ufs/hisi_ufs_bkops.c:307:6
	ldrb	w8, [x26, #1424]
	tbz	w8, #0, .LBB2_19
.Ltmp39:
// %bb.1:
	//DEBUG_VALUE: hisi_ufs_is_bkops_supported:hba <- [DW_OP_plus_uconst 3312, DW_OP_stack_value] $x26
	//DEBUG_VALUE: hisi_ufs_is_bkops_supported:sdev <- $x0
	//DEBUG_VALUE: hisi_ufs_manual_bkops_config:sdev <- $x0
	.loc	127 0 6 is_stmt 0       // /mnt/disk/jenkins/ci/workspace/chipset_Q_ATLANTA_R_LV_1016/opensource/component_code/vendor/huawei/extra/build/build_script/kirin_kernel_release/kernel/drivers/scsi/ufs/hisi_ufs_bkops.c:0:6
	ldr	x8, [x0, #8]
.Ltmp40:
	//DEBUG_VALUE: hisi_ufs_manual_bkops_config:q <- [DW_OP_plus_uconst 8] [$sp+0]
	ldr	x27, [x26, #6760]
.Ltmp41:
	//DEBUG_VALUE: hisi_ufs_is_bkops_supported:node <- $x27
	mov	x20, x0
.Ltmp42:
	//DEBUG_VALUE: hisi_ufs_manual_bkops_config:sdev <- $x20
	//DEBUG_VALUE: hisi_ufs_is_bkops_supported:sdev <- $x20
	str	x8, [sp, #8]            // 8-byte Folded Spill
	mov	w8, #6760
	.loc	127 270 2 is_stmt 1     // /mnt/disk/jenkins/ci/workspace/chipset_Q_ATLANTA_R_LV_1016/opensource/component_code/vendor/huawei/extra/build/build_script/kirin_kernel_release/kernel/drivers/scsi/ufs/hisi_ufs_bkops.c:270:2
	add	x28, x26, x8
.Ltmp43:
	//DEBUG_VALUE: hisi_ufs_is_bkops_supported:node <- [DW_OP_deref] $x28
	cmp	x27, x28
	b.eq	.LBB2_9
.Ltmp44:
// %bb.2:
	//DEBUG_VALUE: hisi_ufs_is_bkops_supported:node <- [DW_OP_deref] $x28
	//DEBUG_VALUE: hisi_ufs_is_bkops_supported:sdev <- $x20
	//DEBUG_VALUE: hisi_ufs_manual_bkops_config:sdev <- $x20
	//DEBUG_VALUE: hisi_ufs_manual_bkops_config:q <- [DW_OP_plus_uconst 8] [$sp+0]
	//DEBUG_VALUE: hisi_ufs_is_bkops_supported:hba <- [DW_OP_plus_uconst 3312, DW_OP_stack_value] $x26
	.loc	127 0 2 is_stmt 0       // /mnt/disk/jenkins/ci/workspace/chipset_Q_ATLANTA_R_LV_1016/opensource/component_code/vendor/huawei/extra/build/build_script/kirin_kernel_release/kernel/drivers/scsi/ufs/hisi_ufs_bkops.c:0:2
	ldrh	w19, [x26, #6464]
	ldr	x21, [x20, #280]
.Ltmp45:
	//DEBUG_VALUE: hisi_ufs_is_bkops_id_match:ufs_rev <- $x21
	adrp	x22, .L.str.5
	adrp	x23, .L.str.4
	add	x22, x22, :lo12:.L.str.5
	add	x23, x23, :lo12:.L.str.4
.Ltmp46:
.LBB2_3:                                // =>This Inner Loop Header: Depth=1
	//DEBUG_VALUE: hisi_ufs_is_bkops_id_match:ufs_rev <- $x21
	//DEBUG_VALUE: hisi_ufs_is_bkops_supported:node <- [DW_OP_deref] $x28
	//DEBUG_VALUE: hisi_ufs_is_bkops_supported:sdev <- $x20
	//DEBUG_VALUE: hisi_ufs_manual_bkops_config:sdev <- $x20
	//DEBUG_VALUE: hisi_ufs_manual_bkops_config:q <- [DW_OP_plus_uconst 8] [$sp+0]
	//DEBUG_VALUE: hisi_ufs_is_bkops_supported:hba <- [DW_OP_plus_uconst 3312, DW_OP_stack_value] $x26
	//DEBUG_VALUE: __mptr <- $x27
	//DEBUG_VALUE: hisi_ufs_is_bkops_supported:bkops_id <- [DW_OP_constu 24, DW_OP_minus, DW_OP_stack_value] $x27
	//DEBUG_VALUE: hisi_ufs_is_bkops_id_match:bkops_id <- [DW_OP_constu 24, DW_OP_minus, DW_OP_stack_value] $x27
	.loc	127 248 26 is_stmt 1    // /mnt/disk/jenkins/ci/workspace/chipset_Q_ATLANTA_R_LV_1016/opensource/component_code/vendor/huawei/extra/build/build_script/kirin_kernel_release/kernel/drivers/scsi/ufs/hisi_ufs_bkops.c:248:26
	ldurh	w8, [x27, #-24]
.Ltmp47:
	.loc	127 248 6 is_stmt 0     // /mnt/disk/jenkins/ci/workspace/chipset_Q_ATLANTA_R_LV_1016/opensource/component_code/vendor/huawei/extra/build/build_script/kirin_kernel_release/kernel/drivers/scsi/ufs/hisi_ufs_bkops.c:248:6
	cmp	w8, w19
	b.ne	.LBB2_8
.Ltmp48:
// %bb.4:                               //   in Loop: Header=BB2_3 Depth=1
	//DEBUG_VALUE: hisi_ufs_is_bkops_id_match:bkops_id <- [DW_OP_constu 24, DW_OP_minus, DW_OP_stack_value] $x27
	//DEBUG_VALUE: hisi_ufs_is_bkops_supported:bkops_id <- [DW_OP_constu 24, DW_OP_minus, DW_OP_stack_value] $x27
	//DEBUG_VALUE: hisi_ufs_is_bkops_id_match:ufs_rev <- $x21
	//DEBUG_VALUE: hisi_ufs_is_bkops_supported:node <- [DW_OP_deref] $x28
	//DEBUG_VALUE: hisi_ufs_is_bkops_supported:sdev <- $x20
	//DEBUG_VALUE: hisi_ufs_manual_bkops_config:sdev <- $x20
	//DEBUG_VALUE: hisi_ufs_manual_bkops_config:q <- [DW_OP_plus_uconst 8] [$sp+0]
	//DEBUG_VALUE: hisi_ufs_is_bkops_supported:hba <- [DW_OP_plus_uconst 3312, DW_OP_stack_value] $x26
	.loc	127 251 35 is_stmt 1    // /mnt/disk/jenkins/ci/workspace/chipset_Q_ATLANTA_R_LV_1016/opensource/component_code/vendor/huawei/extra/build/build_script/kirin_kernel_release/kernel/drivers/scsi/ufs/hisi_ufs_bkops.c:251:35
	ldur	x24, [x27, #-16]
.Ltmp49:
	.loc	127 274 14              // /mnt/disk/jenkins/ci/workspace/chipset_Q_ATLANTA_R_LV_1016/opensource/component_code/vendor/huawei/extra/build/build_script/kirin_kernel_release/kernel/drivers/scsi/ufs/hisi_ufs_bkops.c:274:14
	ldr	x25, [x20, #272]
.Ltmp50:
	//DEBUG_VALUE: hisi_ufs_is_bkops_id_match:ufs_model <- $x25
	.loc	127 252 7               // /mnt/disk/jenkins/ci/workspace/chipset_Q_ATLANTA_R_LV_1016/opensource/component_code/vendor/huawei/extra/build/build_script/kirin_kernel_release/kernel/drivers/scsi/ufs/hisi_ufs_bkops.c:252:7
	mov	x0, x24
	bl	strlen
	mov	x2, x0
	.loc	127 251 6               // /mnt/disk/jenkins/ci/workspace/chipset_Q_ATLANTA_R_LV_1016/opensource/component_code/vendor/huawei/extra/build/build_script/kirin_kernel_release/kernel/drivers/scsi/ufs/hisi_ufs_bkops.c:251:6
	mov	x0, x25
	mov	x1, x24
	bl	strncmp
	.loc	127 252 36              // /mnt/disk/jenkins/ci/workspace/chipset_Q_ATLANTA_R_LV_1016/opensource/component_code/vendor/huawei/extra/build/build_script/kirin_kernel_release/kernel/drivers/scsi/ufs/hisi_ufs_bkops.c:252:36
	cbz	w0, .LBB2_6
.Ltmp51:
// %bb.5:                               //   in Loop: Header=BB2_3 Depth=1
	//DEBUG_VALUE: hisi_ufs_is_bkops_id_match:ufs_model <- $x25
	//DEBUG_VALUE: hisi_ufs_is_bkops_id_match:bkops_id <- [DW_OP_constu 24, DW_OP_minus, DW_OP_stack_value] $x27
	//DEBUG_VALUE: hisi_ufs_is_bkops_supported:bkops_id <- [DW_OP_constu 24, DW_OP_minus, DW_OP_stack_value] $x27
	//DEBUG_VALUE: hisi_ufs_is_bkops_id_match:ufs_rev <- $x21
	//DEBUG_VALUE: hisi_ufs_is_bkops_supported:node <- [DW_OP_deref] $x28
	//DEBUG_VALUE: hisi_ufs_is_bkops_supported:sdev <- $x20
	//DEBUG_VALUE: hisi_ufs_manual_bkops_config:sdev <- $x20
	//DEBUG_VALUE: hisi_ufs_manual_bkops_config:q <- [DW_OP_plus_uconst 8] [$sp+0]
	//DEBUG_VALUE: hisi_ufs_is_bkops_supported:hba <- [DW_OP_plus_uconst 3312, DW_OP_stack_value] $x26
	.loc	127 253 3               // /mnt/disk/jenkins/ci/workspace/chipset_Q_ATLANTA_R_LV_1016/opensource/component_code/vendor/huawei/extra/build/build_script/kirin_kernel_release/kernel/drivers/scsi/ufs/hisi_ufs_bkops.c:253:3
	mov	x0, x23
	mov	x1, x24
	bl	strcmp
.Ltmp52:
	.loc	127 251 6               // /mnt/disk/jenkins/ci/workspace/chipset_Q_ATLANTA_R_LV_1016/opensource/component_code/vendor/huawei/extra/build/build_script/kirin_kernel_release/kernel/drivers/scsi/ufs/hisi_ufs_bkops.c:251:6
	cbnz	w0, .LBB2_8
.Ltmp53:
.LBB2_6:                                //   in Loop: Header=BB2_3 Depth=1
	//DEBUG_VALUE: hisi_ufs_is_bkops_id_match:ufs_model <- $x25
	//DEBUG_VALUE: hisi_ufs_is_bkops_id_match:bkops_id <- [DW_OP_constu 24, DW_OP_minus, DW_OP_stack_value] $x27
	//DEBUG_VALUE: hisi_ufs_is_bkops_supported:bkops_id <- [DW_OP_constu 24, DW_OP_minus, DW_OP_stack_value] $x27
	//DEBUG_VALUE: hisi_ufs_is_bkops_id_match:ufs_rev <- $x21
	//DEBUG_VALUE: hisi_ufs_is_bkops_supported:node <- [DW_OP_deref] $x28
	//DEBUG_VALUE: hisi_ufs_is_bkops_supported:sdev <- $x20
	//DEBUG_VALUE: hisi_ufs_manual_bkops_config:sdev <- $x20
	//DEBUG_VALUE: hisi_ufs_manual_bkops_config:q <- [DW_OP_plus_uconst 8] [$sp+0]
	//DEBUG_VALUE: hisi_ufs_is_bkops_supported:hba <- [DW_OP_plus_uconst 3312, DW_OP_stack_value] $x26
	.loc	127 256 32              // /mnt/disk/jenkins/ci/workspace/chipset_Q_ATLANTA_R_LV_1016/opensource/component_code/vendor/huawei/extra/build/build_script/kirin_kernel_release/kernel/drivers/scsi/ufs/hisi_ufs_bkops.c:256:32
	ldur	x24, [x27, #-8]
	.loc	127 256 6 is_stmt 0     // /mnt/disk/jenkins/ci/workspace/chipset_Q_ATLANTA_R_LV_1016/opensource/component_code/vendor/huawei/extra/build/build_script/kirin_kernel_release/kernel/drivers/scsi/ufs/hisi_ufs_bkops.c:256:6
	mov	x0, x21
	mov	x1, x24
	bl	strcmp
	.loc	127 256 41              // /mnt/disk/jenkins/ci/workspace/chipset_Q_ATLANTA_R_LV_1016/opensource/component_code/vendor/huawei/extra/build/build_script/kirin_kernel_release/kernel/drivers/scsi/ufs/hisi_ufs_bkops.c:256:41
	cbz	w0, .LBB2_18
.Ltmp54:
// %bb.7:                               //   in Loop: Header=BB2_3 Depth=1
	//DEBUG_VALUE: hisi_ufs_is_bkops_id_match:ufs_model <- $x25
	//DEBUG_VALUE: hisi_ufs_is_bkops_id_match:bkops_id <- [DW_OP_constu 24, DW_OP_minus, DW_OP_stack_value] $x27
	//DEBUG_VALUE: hisi_ufs_is_bkops_supported:bkops_id <- [DW_OP_constu 24, DW_OP_minus, DW_OP_stack_value] $x27
	//DEBUG_VALUE: hisi_ufs_is_bkops_id_match:ufs_rev <- $x21
	//DEBUG_VALUE: hisi_ufs_is_bkops_supported:node <- [DW_OP_deref] $x28
	//DEBUG_VALUE: hisi_ufs_is_bkops_supported:sdev <- $x20
	//DEBUG_VALUE: hisi_ufs_manual_bkops_config:sdev <- $x20
	//DEBUG_VALUE: hisi_ufs_manual_bkops_config:q <- [DW_OP_plus_uconst 8] [$sp+0]
	//DEBUG_VALUE: hisi_ufs_is_bkops_supported:hba <- [DW_OP_plus_uconst 3312, DW_OP_stack_value] $x26
	.loc	127 257 3 is_stmt 1     // /mnt/disk/jenkins/ci/workspace/chipset_Q_ATLANTA_R_LV_1016/opensource/component_code/vendor/huawei/extra/build/build_script/kirin_kernel_release/kernel/drivers/scsi/ufs/hisi_ufs_bkops.c:257:3
	mov	x0, x22
	mov	x1, x24
	bl	strcmp
.Ltmp55:
	.loc	127 256 6               // /mnt/disk/jenkins/ci/workspace/chipset_Q_ATLANTA_R_LV_1016/opensource/component_code/vendor/huawei/extra/build/build_script/kirin_kernel_release/kernel/drivers/scsi/ufs/hisi_ufs_bkops.c:256:6
	cbz	w0, .LBB2_18
.Ltmp56:
.LBB2_8:                                //   in Loop: Header=BB2_3 Depth=1
	//DEBUG_VALUE: hisi_ufs_is_bkops_supported:bkops_id <- [DW_OP_constu 24, DW_OP_minus, DW_OP_stack_value] $x27
	//DEBUG_VALUE: hisi_ufs_is_bkops_supported:node <- [DW_OP_deref] $x28
	//DEBUG_VALUE: hisi_ufs_is_bkops_supported:sdev <- $x20
	//DEBUG_VALUE: hisi_ufs_manual_bkops_config:sdev <- $x20
	//DEBUG_VALUE: hisi_ufs_manual_bkops_config:q <- [DW_OP_plus_uconst 8] [$sp+0]
	//DEBUG_VALUE: hisi_ufs_is_bkops_supported:hba <- [DW_OP_plus_uconst 3312, DW_OP_stack_value] $x26
	//DEBUG_VALUE: hisi_ufs_is_bkops_supported:node <- [DW_OP_deref] $x27
	.loc	127 0 0 is_stmt 0       // /mnt/disk/jenkins/ci/workspace/chipset_Q_ATLANTA_R_LV_1016/opensource/component_code/vendor/huawei/extra/build/build_script/kirin_kernel_release/kernel/drivers/scsi/ufs/hisi_ufs_bkops.c:0:0
	ldr	x27, [x27]
.Ltmp57:
	//DEBUG_VALUE: hisi_ufs_is_bkops_supported:node <- $x27
	.loc	127 270 2 is_stmt 1     // /mnt/disk/jenkins/ci/workspace/chipset_Q_ATLANTA_R_LV_1016/opensource/component_code/vendor/huawei/extra/build/build_script/kirin_kernel_release/kernel/drivers/scsi/ufs/hisi_ufs_bkops.c:270:2
	cmp	x27, x28
	b.ne	.LBB2_3
.Ltmp58:
.LBB2_9:
	//DEBUG_VALUE: hisi_ufs_is_bkops_supported:sdev <- $x20
	//DEBUG_VALUE: hisi_ufs_manual_bkops_config:sdev <- $x20
	//DEBUG_VALUE: hisi_ufs_manual_bkops_config:q <- [DW_OP_plus_uconst 8] [$sp+0]
	//DEBUG_VALUE: hisi_ufs_is_bkops_supported:hba <- [DW_OP_plus_uconst 3312, DW_OP_stack_value] $x26
	.loc	127 0 0 is_stmt 0       // /mnt/disk/jenkins/ci/workspace/chipset_Q_ATLANTA_R_LV_1016/opensource/component_code/vendor/huawei/extra/build/build_script/kirin_kernel_release/kernel/drivers/scsi/ufs/hisi_ufs_bkops.c:0:0
	ldr	x28, [x26, #6744]
.Ltmp59:
	//DEBUG_VALUE: hisi_ufs_is_bkops_supported:node <- $x28
	mov	w8, #6744
	.loc	127 279 2 is_stmt 1     // /mnt/disk/jenkins/ci/workspace/chipset_Q_ATLANTA_R_LV_1016/opensource/component_code/vendor/huawei/extra/build/build_script/kirin_kernel_release/kernel/drivers/scsi/ufs/hisi_ufs_bkops.c:279:2
	add	x27, x26, x8
.Ltmp60:
	//DEBUG_VALUE: hisi_ufs_is_bkops_supported:node <- [DW_OP_deref] $x27
	cmp	x28, x27
	b.eq	.LBB2_18
.Ltmp61:
// %bb.10:
	//DEBUG_VALUE: hisi_ufs_is_bkops_supported:sdev <- $x20
	//DEBUG_VALUE: hisi_ufs_manual_bkops_config:sdev <- $x20
	//DEBUG_VALUE: hisi_ufs_is_bkops_supported:node <- $x27
	//DEBUG_VALUE: hisi_ufs_manual_bkops_config:q <- [DW_OP_plus_uconst 8] [$sp+0]
	//DEBUG_VALUE: hisi_ufs_is_bkops_supported:hba <- [DW_OP_plus_uconst 3312, DW_OP_stack_value] $x26
	.loc	127 0 2 is_stmt 0       // /mnt/disk/jenkins/ci/workspace/chipset_Q_ATLANTA_R_LV_1016/opensource/component_code/vendor/huawei/extra/build/build_script/kirin_kernel_release/kernel/drivers/scsi/ufs/hisi_ufs_bkops.c:0:2
	ldrh	w19, [x26, #6464]
	ldr	x21, [x20, #280]
.Ltmp62:
	//DEBUG_VALUE: hisi_ufs_is_bkops_id_match:ufs_rev <- $x21
	adrp	x22, .L.str.5
	adrp	x23, .L.str.4
	add	x8, x26, #3312          // =3312
.Ltmp63:
	//DEBUG_VALUE: hisi_ufs_manual_bkops_config:hba <- [$sp+0]
	add	x22, x22, :lo12:.L.str.5
	add	x23, x23, :lo12:.L.str.4
	str	x8, [sp]                // 8-byte Folded Spill
.Ltmp64:
.LBB2_11:                               // =>This Inner Loop Header: Depth=1
	//DEBUG_VALUE: hisi_ufs_manual_bkops_config:hba <- [$sp+0]
	//DEBUG_VALUE: hisi_ufs_is_bkops_id_match:ufs_rev <- $x21
	//DEBUG_VALUE: hisi_ufs_is_bkops_supported:sdev <- $x20
	//DEBUG_VALUE: hisi_ufs_manual_bkops_config:sdev <- $x20
	//DEBUG_VALUE: hisi_ufs_is_bkops_supported:node <- $x27
	//DEBUG_VALUE: hisi_ufs_manual_bkops_config:q <- [DW_OP_plus_uconst 8] [$sp+0]
	//DEBUG_VALUE: hisi_ufs_is_bkops_supported:hba <- [DW_OP_plus_uconst 3312, DW_OP_stack_value] $x26
	//DEBUG_VALUE: hisi_ufs_is_bkops_supported:bkops_id <- [DW_OP_constu 24, DW_OP_minus, DW_OP_stack_value] $x28
	//DEBUG_VALUE: __mptr <- $x28
	//DEBUG_VALUE: hisi_ufs_is_bkops_id_match:bkops_id <- [DW_OP_constu 24, DW_OP_minus, DW_OP_stack_value] $x28
	.loc	127 248 26 is_stmt 1    // /mnt/disk/jenkins/ci/workspace/chipset_Q_ATLANTA_R_LV_1016/opensource/component_code/vendor/huawei/extra/build/build_script/kirin_kernel_release/kernel/drivers/scsi/ufs/hisi_ufs_bkops.c:248:26
	ldurh	w8, [x28, #-24]
.Ltmp65:
	.loc	127 248 6 is_stmt 0     // /mnt/disk/jenkins/ci/workspace/chipset_Q_ATLANTA_R_LV_1016/opensource/component_code/vendor/huawei/extra/build/build_script/kirin_kernel_release/kernel/drivers/scsi/ufs/hisi_ufs_bkops.c:248:6
	cmp	w8, w19
	b.ne	.LBB2_16
.Ltmp66:
// %bb.12:                              //   in Loop: Header=BB2_11 Depth=1
	//DEBUG_VALUE: hisi_ufs_is_bkops_id_match:bkops_id <- [DW_OP_constu 24, DW_OP_minus, DW_OP_stack_value] $x28
	//DEBUG_VALUE: hisi_ufs_is_bkops_supported:bkops_id <- [DW_OP_constu 24, DW_OP_minus, DW_OP_stack_value] $x28
	//DEBUG_VALUE: hisi_ufs_manual_bkops_config:hba <- [$sp+0]
	//DEBUG_VALUE: hisi_ufs_is_bkops_id_match:ufs_rev <- $x21
	//DEBUG_VALUE: hisi_ufs_is_bkops_supported:sdev <- $x20
	//DEBUG_VALUE: hisi_ufs_manual_bkops_config:sdev <- $x20
	//DEBUG_VALUE: hisi_ufs_is_bkops_supported:node <- $x27
	//DEBUG_VALUE: hisi_ufs_manual_bkops_config:q <- [DW_OP_plus_uconst 8] [$sp+0]
	//DEBUG_VALUE: hisi_ufs_is_bkops_supported:hba <- [DW_OP_plus_uconst 3312, DW_OP_stack_value] $x26
	.loc	127 251 35 is_stmt 1    // /mnt/disk/jenkins/ci/workspace/chipset_Q_ATLANTA_R_LV_1016/opensource/component_code/vendor/huawei/extra/build/build_script/kirin_kernel_release/kernel/drivers/scsi/ufs/hisi_ufs_bkops.c:251:35
	ldur	x24, [x28, #-16]
.Ltmp67:
	.loc	127 283 14              // /mnt/disk/jenkins/ci/workspace/chipset_Q_ATLANTA_R_LV_1016/opensource/component_code/vendor/huawei/extra/build/build_script/kirin_kernel_release/kernel/drivers/scsi/ufs/hisi_ufs_bkops.c:283:14
	ldr	x25, [x20, #272]
.Ltmp68:
	//DEBUG_VALUE: hisi_ufs_is_bkops_id_match:ufs_model <- $x25
	.loc	127 252 7               // /mnt/disk/jenkins/ci/workspace/chipset_Q_ATLANTA_R_LV_1016/opensource/component_code/vendor/huawei/extra/build/build_script/kirin_kernel_release/kernel/drivers/scsi/ufs/hisi_ufs_bkops.c:252:7
	mov	x0, x24
	bl	strlen
	mov	x2, x0
	.loc	127 251 6               // /mnt/disk/jenkins/ci/workspace/chipset_Q_ATLANTA_R_LV_1016/opensource/component_code/vendor/huawei/extra/build/build_script/kirin_kernel_release/kernel/drivers/scsi/ufs/hisi_ufs_bkops.c:251:6
	mov	x0, x25
	mov	x1, x24
	bl	strncmp
	.loc	127 252 36              // /mnt/disk/jenkins/ci/workspace/chipset_Q_ATLANTA_R_LV_1016/opensource/component_code/vendor/huawei/extra/build/build_script/kirin_kernel_release/kernel/drivers/scsi/ufs/hisi_ufs_bkops.c:252:36
	cbz	w0, .LBB2_14
.Ltmp69:
// %bb.13:                              //   in Loop: Header=BB2_11 Depth=1
	//DEBUG_VALUE: hisi_ufs_is_bkops_id_match:ufs_model <- $x25
	//DEBUG_VALUE: hisi_ufs_is_bkops_id_match:bkops_id <- [DW_OP_constu 24, DW_OP_minus, DW_OP_stack_value] $x28
	//DEBUG_VALUE: hisi_ufs_is_bkops_supported:bkops_id <- [DW_OP_constu 24, DW_OP_minus, DW_OP_stack_value] $x28
	//DEBUG_VALUE: hisi_ufs_manual_bkops_config:hba <- [$sp+0]
	//DEBUG_VALUE: hisi_ufs_is_bkops_id_match:ufs_rev <- $x21
	//DEBUG_VALUE: hisi_ufs_is_bkops_supported:sdev <- $x20
	//DEBUG_VALUE: hisi_ufs_manual_bkops_config:sdev <- $x20
	//DEBUG_VALUE: hisi_ufs_is_bkops_supported:node <- $x27
	//DEBUG_VALUE: hisi_ufs_manual_bkops_config:q <- [DW_OP_plus_uconst 8] [$sp+0]
	//DEBUG_VALUE: hisi_ufs_is_bkops_supported:hba <- [DW_OP_plus_uconst 3312, DW_OP_stack_value] $x26
	.loc	127 253 3               // /mnt/disk/jenkins/ci/workspace/chipset_Q_ATLANTA_R_LV_1016/opensource/component_code/vendor/huawei/extra/build/build_script/kirin_kernel_release/kernel/drivers/scsi/ufs/hisi_ufs_bkops.c:253:3
	mov	x0, x23
	mov	x1, x24
	bl	strcmp
.Ltmp70:
	.loc	127 251 6               // /mnt/disk/jenkins/ci/workspace/chipset_Q_ATLANTA_R_LV_1016/opensource/component_code/vendor/huawei/extra/build/build_script/kirin_kernel_release/kernel/drivers/scsi/ufs/hisi_ufs_bkops.c:251:6
	cbnz	w0, .LBB2_16
.Ltmp71:
.LBB2_14:                               //   in Loop: Header=BB2_11 Depth=1
	//DEBUG_VALUE: hisi_ufs_is_bkops_id_match:ufs_model <- $x25
	//DEBUG_VALUE: hisi_ufs_is_bkops_id_match:bkops_id <- [DW_OP_constu 24, DW_OP_minus, DW_OP_stack_value] $x28
	//DEBUG_VALUE: hisi_ufs_is_bkops_supported:bkops_id <- [DW_OP_constu 24, DW_OP_minus, DW_OP_stack_value] $x28
	//DEBUG_VALUE: hisi_ufs_manual_bkops_config:hba <- [$sp+0]
	//DEBUG_VALUE: hisi_ufs_is_bkops_id_match:ufs_rev <- $x21
	//DEBUG_VALUE: hisi_ufs_is_bkops_supported:sdev <- $x20
	//DEBUG_VALUE: hisi_ufs_manual_bkops_config:sdev <- $x20
	//DEBUG_VALUE: hisi_ufs_is_bkops_supported:node <- $x27
	//DEBUG_VALUE: hisi_ufs_manual_bkops_config:q <- [DW_OP_plus_uconst 8] [$sp+0]
	//DEBUG_VALUE: hisi_ufs_is_bkops_supported:hba <- [DW_OP_plus_uconst 3312, DW_OP_stack_value] $x26
	.loc	127 256 32              // /mnt/disk/jenkins/ci/workspace/chipset_Q_ATLANTA_R_LV_1016/opensource/component_code/vendor/huawei/extra/build/build_script/kirin_kernel_release/kernel/drivers/scsi/ufs/hisi_ufs_bkops.c:256:32
	ldur	x24, [x28, #-8]
	.loc	127 256 6 is_stmt 0     // /mnt/disk/jenkins/ci/workspace/chipset_Q_ATLANTA_R_LV_1016/opensource/component_code/vendor/huawei/extra/build/build_script/kirin_kernel_release/kernel/drivers/scsi/ufs/hisi_ufs_bkops.c:256:6
	mov	x0, x21
	mov	x1, x24
	bl	strcmp
	.loc	127 256 41              // /mnt/disk/jenkins/ci/workspace/chipset_Q_ATLANTA_R_LV_1016/opensource/component_code/vendor/huawei/extra/build/build_script/kirin_kernel_release/kernel/drivers/scsi/ufs/hisi_ufs_bkops.c:256:41
	cbz	w0, .LBB2_17
.Ltmp72:
// %bb.15:                              //   in Loop: Header=BB2_11 Depth=1
	//DEBUG_VALUE: hisi_ufs_is_bkops_id_match:ufs_model <- $x25
	//DEBUG_VALUE: hisi_ufs_is_bkops_id_match:bkops_id <- [DW_OP_constu 24, DW_OP_minus, DW_OP_stack_value] $x28
	//DEBUG_VALUE: hisi_ufs_is_bkops_supported:bkops_id <- [DW_OP_constu 24, DW_OP_minus, DW_OP_stack_value] $x28
	//DEBUG_VALUE: hisi_ufs_manual_bkops_config:hba <- [$sp+0]
	//DEBUG_VALUE: hisi_ufs_is_bkops_id_match:ufs_rev <- $x21
	//DEBUG_VALUE: hisi_ufs_is_bkops_supported:sdev <- $x20
	//DEBUG_VALUE: hisi_ufs_manual_bkops_config:sdev <- $x20
	//DEBUG_VALUE: hisi_ufs_is_bkops_supported:node <- $x27
	//DEBUG_VALUE: hisi_ufs_manual_bkops_config:q <- [DW_OP_plus_uconst 8] [$sp+0]
	//DEBUG_VALUE: hisi_ufs_is_bkops_supported:hba <- [DW_OP_plus_uconst 3312, DW_OP_stack_value] $x26
	.loc	127 257 3 is_stmt 1     // /mnt/disk/jenkins/ci/workspace/chipset_Q_ATLANTA_R_LV_1016/opensource/component_code/vendor/huawei/extra/build/build_script/kirin_kernel_release/kernel/drivers/scsi/ufs/hisi_ufs_bkops.c:257:3
	mov	x0, x22
	mov	x1, x24
	bl	strcmp
.Ltmp73:
	.loc	127 256 6               // /mnt/disk/jenkins/ci/workspace/chipset_Q_ATLANTA_R_LV_1016/opensource/component_code/vendor/huawei/extra/build/build_script/kirin_kernel_release/kernel/drivers/scsi/ufs/hisi_ufs_bkops.c:256:6
	cbz	w0, .LBB2_17
.Ltmp74:
.LBB2_16:                               //   in Loop: Header=BB2_11 Depth=1
	//DEBUG_VALUE: hisi_ufs_is_bkops_supported:bkops_id <- [DW_OP_constu 24, DW_OP_minus, DW_OP_stack_value] $x28
	//DEBUG_VALUE: hisi_ufs_manual_bkops_config:hba <- [$sp+0]
	//DEBUG_VALUE: hisi_ufs_is_bkops_supported:sdev <- $x20
	//DEBUG_VALUE: hisi_ufs_manual_bkops_config:sdev <- $x20
	//DEBUG_VALUE: hisi_ufs_is_bkops_supported:node <- $x27
	//DEBUG_VALUE: hisi_ufs_manual_bkops_config:q <- [DW_OP_plus_uconst 8] [$sp+0]
	//DEBUG_VALUE: hisi_ufs_is_bkops_supported:hba <- [DW_OP_plus_uconst 3312, DW_OP_stack_value] $x26
	//DEBUG_VALUE: hisi_ufs_is_bkops_supported:node <- [DW_OP_deref] $x28
	.loc	127 0 0 is_stmt 0       // /mnt/disk/jenkins/ci/workspace/chipset_Q_ATLANTA_R_LV_1016/opensource/component_code/vendor/huawei/extra/build/build_script/kirin_kernel_release/kernel/drivers/scsi/ufs/hisi_ufs_bkops.c:0:0
	ldr	x28, [x28]
.Ltmp75:
	//DEBUG_VALUE: hisi_ufs_is_bkops_supported:node <- $x28
	.loc	127 279 2 is_stmt 1     // /mnt/disk/jenkins/ci/workspace/chipset_Q_ATLANTA_R_LV_1016/opensource/component_code/vendor/huawei/extra/build/build_script/kirin_kernel_release/kernel/drivers/scsi/ufs/hisi_ufs_bkops.c:279:2
	cmp	x28, x27
	b.ne	.LBB2_11
	b	.LBB2_18
.Ltmp76:
.LBB2_17:
	//DEBUG_VALUE: hisi_ufs_manual_bkops_config:hba <- [$sp+0]
	//DEBUG_VALUE: hisi_ufs_manual_bkops_config:sdev <- $x20
	//DEBUG_VALUE: hisi_ufs_manual_bkops_config:q <- [DW_OP_plus_uconst 8] [$sp+0]
	.loc	127 0 2 is_stmt 0       // /mnt/disk/jenkins/ci/workspace/chipset_Q_ATLANTA_R_LV_1016/opensource/component_code/vendor/huawei/extra/build/build_script/kirin_kernel_release/kernel/drivers/scsi/ufs/hisi_ufs_bkops.c:0:2
	mov	w8, #6720
	.loc	127 311 49 is_stmt 1    // /mnt/disk/jenkins/ci/workspace/chipset_Q_ATLANTA_R_LV_1016/opensource/component_code/vendor/huawei/extra/build/build_script/kirin_kernel_release/kernel/drivers/scsi/ufs/hisi_ufs_bkops.c:311:49
	add	x21, x26, x8
	ldrb	w8, [x21]
.Ltmp77:
	.loc	127 311 6 is_stmt 0     // /mnt/disk/jenkins/ci/workspace/chipset_Q_ATLANTA_R_LV_1016/opensource/component_code/vendor/huawei/extra/build/build_script/kirin_kernel_release/kernel/drivers/scsi/ufs/hisi_ufs_bkops.c:311:6
	cbz	w8, .LBB2_21
.Ltmp78:
.LBB2_18:
	//DEBUG_VALUE: hisi_ufs_manual_bkops_config:sdev <- $x20
	//DEBUG_VALUE: hisi_ufs_manual_bkops_config:q <- [DW_OP_plus_uconst 8] [$sp+0]
	.loc	127 312 3 is_stmt 1     // /mnt/disk/jenkins/ci/workspace/chipset_Q_ATLANTA_R_LV_1016/opensource/component_code/vendor/huawei/extra/build/build_script/kirin_kernel_release/kernel/drivers/scsi/ufs/hisi_ufs_bkops.c:312:3
	adrp	x0, .L.str.1
	add	x0, x0, :lo12:.L.str.1
	bl	printk
.Ltmp79:
.LBB2_19:
	.loc	127 0 0 is_stmt 0       // /mnt/disk/jenkins/ci/workspace/chipset_Q_ATLANTA_R_LV_1016/opensource/component_code/vendor/huawei/extra/build/build_script/kirin_kernel_release/kernel/drivers/scsi/ufs/hisi_ufs_bkops.c:0:0
	mov	w0, wzr
.LBB2_20:
	.loc	127 356 1 is_stmt 1     // /mnt/disk/jenkins/ci/workspace/chipset_Q_ATLANTA_R_LV_1016/opensource/component_code/vendor/huawei/extra/build/build_script/kirin_kernel_release/kernel/drivers/scsi/ufs/hisi_ufs_bkops.c:356:1
	ldp	x29, x30, [sp, #96]     // 16-byte Folded Reload
	ldp	x20, x19, [sp, #80]     // 16-byte Folded Reload
	ldp	x22, x21, [sp, #64]     // 16-byte Folded Reload
	ldp	x24, x23, [sp, #48]     // 16-byte Folded Reload
	ldp	x26, x25, [sp, #32]     // 16-byte Folded Reload
	ldp	x28, x27, [sp, #16]     // 16-byte Folded Reload
	add	sp, sp, #112            // =112
	ret
.LBB2_21:
.Ltmp80:
	//DEBUG_VALUE: hisi_ufs_manual_bkops_config:hba <- [$sp+0]
	//DEBUG_VALUE: hisi_ufs_manual_bkops_config:sdev <- $x20
	//DEBUG_VALUE: hisi_ufs_manual_bkops_config:q <- [DW_OP_plus_uconst 8] [$sp+0]
	.loc	127 316 14              // /mnt/disk/jenkins/ci/workspace/chipset_Q_ATLANTA_R_LV_1016/opensource/component_code/vendor/huawei/extra/build/build_script/kirin_kernel_release/kernel/drivers/scsi/ufs/hisi_ufs_bkops.c:316:14
	bl	hisi_bkops_alloc
	.loc	127 317 6               // /mnt/disk/jenkins/ci/workspace/chipset_Q_ATLANTA_R_LV_1016/opensource/component_code/vendor/huawei/extra/build/build_script/kirin_kernel_release/kernel/drivers/scsi/ufs/hisi_ufs_bkops.c:317:6
	cbz	x0, .LBB2_29
.Ltmp81:
// %bb.22:
	//DEBUG_VALUE: hisi_ufs_manual_bkops_config:hba <- [$sp+0]
	//DEBUG_VALUE: hisi_ufs_manual_bkops_config:sdev <- $x20
	//DEBUG_VALUE: hisi_ufs_manual_bkops_config:q <- [DW_OP_plus_uconst 8] [$sp+0]
	.loc	127 320 11              // /mnt/disk/jenkins/ci/workspace/chipset_Q_ATLANTA_R_LV_1016/opensource/component_code/vendor/huawei/extra/build/build_script/kirin_kernel_release/kernel/drivers/scsi/ufs/hisi_ufs_bkops.c:320:11
	ldrh	w8, [x26, #6464]
.Ltmp82:
	.loc	127 0 0 is_stmt 0       // /mnt/disk/jenkins/ci/workspace/chipset_Q_ATLANTA_R_LV_1016/opensource/component_code/vendor/huawei/extra/build/build_script/kirin_kernel_release/kernel/drivers/scsi/ufs/hisi_ufs_bkops.c:0:0
	mov	x20, x0
.Ltmp83:
	//DEBUG_VALUE: hisi_ufs_manual_bkops_config:ufs_bkops <- $x20
	.loc	127 320 6               // /mnt/disk/jenkins/ci/workspace/chipset_Q_ATLANTA_R_LV_1016/opensource/component_code/vendor/huawei/extra/build/build_script/kirin_kernel_release/kernel/drivers/scsi/ufs/hisi_ufs_bkops.c:320:6
	cmp	w8, #429                // =429
	b.eq	.LBB2_25
.Ltmp84:
// %bb.23:
	//DEBUG_VALUE: hisi_ufs_manual_bkops_config:ufs_bkops <- $x20
	//DEBUG_VALUE: hisi_ufs_manual_bkops_config:hba <- [$sp+0]
	//DEBUG_VALUE: hisi_ufs_manual_bkops_config:q <- [DW_OP_plus_uconst 8] [$sp+0]
	cmp	w8, #2230               // =2230
	b.ne	.LBB2_28
.Ltmp85:
// %bb.24:
	//DEBUG_VALUE: hisi_ufs_manual_bkops_config:ufs_bkops <- $x20
	//DEBUG_VALUE: hisi_ufs_manual_bkops_config:hba <- [$sp+0]
	//DEBUG_VALUE: hisi_ufs_manual_bkops_config:q <- [DW_OP_plus_uconst 8] [$sp+0]
	.loc	127 322 25 is_stmt 1    // /mnt/disk/jenkins/ci/workspace/chipset_Q_ATLANTA_R_LV_1016/opensource/component_code/vendor/huawei/extra/build/build_script/kirin_kernel_release/kernel/drivers/scsi/ufs/hisi_ufs_bkops.c:322:25
	ldr	x8, [x20, #128]
	.loc	127 323 26              // /mnt/disk/jenkins/ci/workspace/chipset_Q_ATLANTA_R_LV_1016/opensource/component_code/vendor/huawei/extra/build/build_script/kirin_kernel_release/kernel/drivers/scsi/ufs/hisi_ufs_bkops.c:323:26
	adrp	x10, hi1861_bkops_ops
	orr	w9, wzr, #0x2
	add	x10, x10, :lo12:hi1861_bkops_ops
	.loc	127 322 25              // /mnt/disk/jenkins/ci/workspace/chipset_Q_ATLANTA_R_LV_1016/opensource/component_code/vendor/huawei/extra/build/build_script/kirin_kernel_release/kernel/drivers/scsi/ufs/hisi_ufs_bkops.c:322:25
	orr	x8, x8, #0x38
.Ltmp86:
	.loc	127 324 7               // /mnt/disk/jenkins/ci/workspace/chipset_Q_ATLANTA_R_LV_1016/opensource/component_code/vendor/huawei/extra/build/build_script/kirin_kernel_release/kernel/drivers/scsi/ufs/hisi_ufs_bkops.c:324:7
	adrp	x2, bkops_status_str_1861
.Ltmp87:
	.loc	127 321 23              // /mnt/disk/jenkins/ci/workspace/chipset_Q_ATLANTA_R_LV_1016/opensource/component_code/vendor/huawei/extra/build/build_script/kirin_kernel_release/kernel/drivers/scsi/ufs/hisi_ufs_bkops.c:321:23
	str	w9, [x20]
	.loc	127 322 25              // /mnt/disk/jenkins/ci/workspace/chipset_Q_ATLANTA_R_LV_1016/opensource/component_code/vendor/huawei/extra/build/build_script/kirin_kernel_release/kernel/drivers/scsi/ufs/hisi_ufs_bkops.c:322:25
	str	x8, [x20, #128]
	.loc	127 323 26              // /mnt/disk/jenkins/ci/workspace/chipset_Q_ATLANTA_R_LV_1016/opensource/component_code/vendor/huawei/extra/build/build_script/kirin_kernel_release/kernel/drivers/scsi/ufs/hisi_ufs_bkops.c:323:26
	str	x10, [x26, #6728]
.Ltmp88:
	.loc	127 324 7               // /mnt/disk/jenkins/ci/workspace/chipset_Q_ATLANTA_R_LV_1016/opensource/component_code/vendor/huawei/extra/build/build_script/kirin_kernel_release/kernel/drivers/scsi/ufs/hisi_ufs_bkops.c:324:7
	add	x2, x2, :lo12:bkops_status_str_1861
	orr	w1, wzr, #0x6
	b	.LBB2_26
.Ltmp89:
.LBB2_25:
	//DEBUG_VALUE: hisi_ufs_manual_bkops_config:ufs_bkops <- $x20
	//DEBUG_VALUE: hisi_ufs_manual_bkops_config:hba <- [$sp+0]
	//DEBUG_VALUE: hisi_ufs_manual_bkops_config:q <- [DW_OP_plus_uconst 8] [$sp+0]
	.loc	127 334 25              // /mnt/disk/jenkins/ci/workspace/chipset_Q_ATLANTA_R_LV_1016/opensource/component_code/vendor/huawei/extra/build/build_script/kirin_kernel_release/kernel/drivers/scsi/ufs/hisi_ufs_bkops.c:334:25
	ldr	x8, [x20, #128]
	.loc	127 335 26              // /mnt/disk/jenkins/ci/workspace/chipset_Q_ATLANTA_R_LV_1016/opensource/component_code/vendor/huawei/extra/build/build_script/kirin_kernel_release/kernel/drivers/scsi/ufs/hisi_ufs_bkops.c:335:26
	adrp	x10, hynix_bkops_ops
.Ltmp90:
	.loc	127 336 7               // /mnt/disk/jenkins/ci/workspace/chipset_Q_ATLANTA_R_LV_1016/opensource/component_code/vendor/huawei/extra/build/build_script/kirin_kernel_release/kernel/drivers/scsi/ufs/hisi_ufs_bkops.c:336:7
	adrp	x2, bkops_status_str_hynix
	orr	w9, wzr, #0x3
.Ltmp91:
	.loc	127 335 26              // /mnt/disk/jenkins/ci/workspace/chipset_Q_ATLANTA_R_LV_1016/opensource/component_code/vendor/huawei/extra/build/build_script/kirin_kernel_release/kernel/drivers/scsi/ufs/hisi_ufs_bkops.c:335:26
	add	x10, x10, :lo12:hynix_bkops_ops
	.loc	127 334 25              // /mnt/disk/jenkins/ci/workspace/chipset_Q_ATLANTA_R_LV_1016/opensource/component_code/vendor/huawei/extra/build/build_script/kirin_kernel_release/kernel/drivers/scsi/ufs/hisi_ufs_bkops.c:334:25
	orr	x8, x8, #0x38
.Ltmp92:
	.loc	127 336 7               // /mnt/disk/jenkins/ci/workspace/chipset_Q_ATLANTA_R_LV_1016/opensource/component_code/vendor/huawei/extra/build/build_script/kirin_kernel_release/kernel/drivers/scsi/ufs/hisi_ufs_bkops.c:336:7
	add	x2, x2, :lo12:bkops_status_str_hynix
	orr	w1, wzr, #0x2
.Ltmp93:
	.loc	127 333 23              // /mnt/disk/jenkins/ci/workspace/chipset_Q_ATLANTA_R_LV_1016/opensource/component_code/vendor/huawei/extra/build/build_script/kirin_kernel_release/kernel/drivers/scsi/ufs/hisi_ufs_bkops.c:333:23
	str	w9, [x20]
	.loc	127 334 25              // /mnt/disk/jenkins/ci/workspace/chipset_Q_ATLANTA_R_LV_1016/opensource/component_code/vendor/huawei/extra/build/build_script/kirin_kernel_release/kernel/drivers/scsi/ufs/hisi_ufs_bkops.c:334:25
	str	x8, [x20, #128]
	.loc	127 335 26              // /mnt/disk/jenkins/ci/workspace/chipset_Q_ATLANTA_R_LV_1016/opensource/component_code/vendor/huawei/extra/build/build_script/kirin_kernel_release/kernel/drivers/scsi/ufs/hisi_ufs_bkops.c:335:26
	str	x10, [x26, #6728]
.Ltmp94:
.LBB2_26:
	//DEBUG_VALUE: hisi_ufs_manual_bkops_config:ufs_bkops <- $x20
	//DEBUG_VALUE: hisi_ufs_manual_bkops_config:hba <- [$sp+0]
	//DEBUG_VALUE: hisi_ufs_manual_bkops_config:q <- [DW_OP_plus_uconst 8] [$sp+0]
	.loc	127 0 0 is_stmt 0       // /mnt/disk/jenkins/ci/workspace/chipset_Q_ATLANTA_R_LV_1016/opensource/component_code/vendor/huawei/extra/build/build_script/kirin_kernel_release/kernel/drivers/scsi/ufs/hisi_ufs_bkops.c:0:0
	mov	x0, x20
	bl	hisi_bkops_set_status_info
	cbz	w0, .LBB2_28
.Ltmp95:
// %bb.27:
	//DEBUG_VALUE: hisi_ufs_manual_bkops_config:ufs_bkops <- $x20
	//DEBUG_VALUE: hisi_ufs_manual_bkops_config:hba <- [$sp+0]
	//DEBUG_VALUE: hisi_ufs_manual_bkops_config:q <- [DW_OP_plus_uconst 8] [$sp+0]
	.loc	127 354 2 is_stmt 1     // /mnt/disk/jenkins/ci/workspace/chipset_Q_ATLANTA_R_LV_1016/opensource/component_code/vendor/huawei/extra/build/build_script/kirin_kernel_release/kernel/drivers/scsi/ufs/hisi_ufs_bkops.c:354:2
	mov	x0, x20
	bl	kfree
	b	.LBB2_29
.Ltmp96:
.LBB2_28:
	//DEBUG_VALUE: hisi_ufs_manual_bkops_config:ufs_bkops <- $x20
	//DEBUG_VALUE: hisi_ufs_manual_bkops_config:hba <- [$sp+0]
	//DEBUG_VALUE: hisi_ufs_manual_bkops_config:q <- [DW_OP_plus_uconst 8] [$sp+0]
	.loc	127 343 23              // /mnt/disk/jenkins/ci/workspace/chipset_Q_ATLANTA_R_LV_1016/opensource/component_code/vendor/huawei/extra/build/build_script/kirin_kernel_release/kernel/drivers/scsi/ufs/hisi_ufs_bkops.c:343:23
	adrp	x8, ufs_bkops_ops
	add	x8, x8, :lo12:ufs_bkops_ops
	.loc	127 341 17              // /mnt/disk/jenkins/ci/workspace/chipset_Q_ATLANTA_R_LV_1016/opensource/component_code/vendor/huawei/extra/build/build_script/kirin_kernel_release/kernel/drivers/scsi/ufs/hisi_ufs_bkops.c:341:17
	str	x20, [x26, #6736]
	.loc	127 343 23              // /mnt/disk/jenkins/ci/workspace/chipset_Q_ATLANTA_R_LV_1016/opensource/component_code/vendor/huawei/extra/build/build_script/kirin_kernel_release/kernel/drivers/scsi/ufs/hisi_ufs_bkops.c:343:23
	str	x8, [x20, #8]
	ldp	x8, x0, [sp]            // 16-byte Folded Reload
	orr	w19, wzr, #0x1
	mov	w9, #3600
	.loc	127 344 28              // /mnt/disk/jenkins/ci/workspace/chipset_Q_ATLANTA_R_LV_1016/opensource/component_code/vendor/huawei/extra/build/build_script/kirin_kernel_release/kernel/drivers/scsi/ufs/hisi_ufs_bkops.c:344:28
	str	w19, [x20, #204]
	.loc	127 342 24              // /mnt/disk/jenkins/ci/workspace/chipset_Q_ATLANTA_R_LV_1016/opensource/component_code/vendor/huawei/extra/build/build_script/kirin_kernel_release/kernel/drivers/scsi/ufs/hisi_ufs_bkops.c:342:24
	str	x8, [x20, #16]
	.loc	127 345 34              // /mnt/disk/jenkins/ci/workspace/chipset_Q_ATLANTA_R_LV_1016/opensource/component_code/vendor/huawei/extra/build/build_script/kirin_kernel_release/kernel/drivers/scsi/ufs/hisi_ufs_bkops.c:345:34
	str	x9, [x20, #208]
.Ltmp97:
	.loc	127 347 57              // /mnt/disk/jenkins/ci/workspace/chipset_Q_ATLANTA_R_LV_1016/opensource/component_code/vendor/huawei/extra/build/build_script/kirin_kernel_release/kernel/drivers/scsi/ufs/hisi_ufs_bkops.c:347:57
	ldr	x2, [x26, #5648]
	.loc	127 347 6 is_stmt 0     // /mnt/disk/jenkins/ci/workspace/chipset_Q_ATLANTA_R_LV_1016/opensource/component_code/vendor/huawei/extra/build/build_script/kirin_kernel_release/kernel/drivers/scsi/ufs/hisi_ufs_bkops.c:347:6
	mov	x1, x20
	bl	hisi_bkops_enable
.Ltmp98:
	.loc	127 347 6               // /mnt/disk/jenkins/ci/workspace/chipset_Q_ATLANTA_R_LV_1016/opensource/component_code/vendor/huawei/extra/build/build_script/kirin_kernel_release/kernel/drivers/scsi/ufs/hisi_ufs_bkops.c:347:6
	cbz	w0, .LBB2_30
.Ltmp99:
.LBB2_29:
	//DEBUG_VALUE: hisi_ufs_manual_bkops_config:hba <- [$sp+0]
	//DEBUG_VALUE: hisi_ufs_manual_bkops_config:q <- [DW_OP_plus_uconst 8] [$sp+0]
	.loc	127 0 6                 // /mnt/disk/jenkins/ci/workspace/chipset_Q_ATLANTA_R_LV_1016/opensource/component_code/vendor/huawei/extra/build/build_script/kirin_kernel_release/kernel/drivers/scsi/ufs/hisi_ufs_bkops.c:0:6
	mov	w0, #-1
	b	.LBB2_20
.Ltmp100:
.LBB2_30:
	//DEBUG_VALUE: hisi_ufs_manual_bkops_config:ufs_bkops <- $x20
	//DEBUG_VALUE: hisi_ufs_manual_bkops_config:hba <- [$sp+0]
	//DEBUG_VALUE: hisi_ufs_manual_bkops_config:q <- [DW_OP_plus_uconst 8] [$sp+0]
	.loc	127 350 25 is_stmt 1    // /mnt/disk/jenkins/ci/workspace/chipset_Q_ATLANTA_R_LV_1016/opensource/component_code/vendor/huawei/extra/build/build_script/kirin_kernel_release/kernel/drivers/scsi/ufs/hisi_ufs_bkops.c:350:25
	strb	w19, [x21]
	b	.LBB2_20
.Ltmp101:
.Lfunc_end2:
	.size	hisi_ufs_manual_bkops_config, .Lfunc_end2-hisi_ufs_manual_bkops_config
	.cfi_endproc
                                        // -- End function
	.section	.text.ufshcd_1861_bkops_query,"ax",@progbits
	.p2align	2               // -- Begin function ufshcd_1861_bkops_query
	.type	ufshcd_1861_bkops_query,@function
ufshcd_1861_bkops_query:                // @ufshcd_1861_bkops_query
.Lfunc_begin3:
	.loc	127 102 0               // /mnt/disk/jenkins/ci/workspace/chipset_Q_ATLANTA_R_LV_1016/opensource/component_code/vendor/huawei/extra/build/build_script/kirin_kernel_release/kernel/drivers/scsi/ufs/hisi_ufs_bkops.c:102:0
	.cfi_startproc
// %bb.0:
	stp	x29, x30, [sp, #-16]!   // 16-byte Folded Spill
	mov	x29, sp
	.cfi_def_cfa w29, 16
	.cfi_offset w30, -8
	.cfi_offset w29, -16
	//DEBUG_VALUE: ufshcd_1861_bkops_query:hba <- $x0
	//DEBUG_VALUE: ufshcd_1861_bkops_query:status <- $x1
	mov	x2, x1
.Ltmp102:
	//DEBUG_VALUE: ufshcd_1861_bkops_query:status <- $x2
	//DEBUG_VALUE: ufshcd_1861_bkops_query:hba <- $x0
	.loc	127 103 9 prologue_end  // /mnt/disk/jenkins/ci/workspace/chipset_Q_ATLANTA_R_LV_1016/opensource/component_code/vendor/huawei/extra/build/build_script/kirin_kernel_release/kernel/drivers/scsi/ufs/hisi_ufs_bkops.c:103:9
	mov	w1, #242
	//DEBUG_VALUE: ufshcd_1861_bkops_query:status <- $x2
	//DEBUG_VALUE: ufshcd_1861_bkops_query:hba <- $x0
	bl	ufshcd_query_hi1861_bkops
.Ltmp103:
	.loc	127 103 2 is_stmt 0     // /mnt/disk/jenkins/ci/workspace/chipset_Q_ATLANTA_R_LV_1016/opensource/component_code/vendor/huawei/extra/build/build_script/kirin_kernel_release/kernel/drivers/scsi/ufs/hisi_ufs_bkops.c:103:2
	ldp	x29, x30, [sp], #16     // 16-byte Folded Reload
	ret
.Ltmp104:
.Lfunc_end3:
	.size	ufshcd_1861_bkops_query, .Lfunc_end3-ufshcd_1861_bkops_query
	.cfi_endproc
                                        // -- End function
	.section	.text.ufshcd_1861_bkops_start,"ax",@progbits
	.p2align	2               // -- Begin function ufshcd_1861_bkops_start
	.type	ufshcd_1861_bkops_start,@function
ufshcd_1861_bkops_start:                // @ufshcd_1861_bkops_start
.Lfunc_begin4:
	.loc	127 107 0 is_stmt 1     // /mnt/disk/jenkins/ci/workspace/chipset_Q_ATLANTA_R_LV_1016/opensource/component_code/vendor/huawei/extra/build/build_script/kirin_kernel_release/kernel/drivers/scsi/ufs/hisi_ufs_bkops.c:107:0
	.cfi_startproc
// %bb.0:
	stp	x29, x30, [sp, #-16]!   // 16-byte Folded Spill
	mov	x29, sp
	.cfi_def_cfa w29, 16
	.cfi_offset w30, -8
	.cfi_offset w29, -16
	//DEBUG_VALUE: ufshcd_1861_bkops_start:hba <- $x0
	//DEBUG_VALUE: ufshcd_1861_bkops_start:hba <- $x0
.Ltmp105:
	.loc	127 108 9 prologue_end  // /mnt/disk/jenkins/ci/workspace/chipset_Q_ATLANTA_R_LV_1016/opensource/component_code/vendor/huawei/extra/build/build_script/kirin_kernel_release/kernel/drivers/scsi/ufs/hisi_ufs_bkops.c:108:9
	orr	w1, wzr, #0xf0
	//DEBUG_VALUE: ufshcd_1861_bkops_start:hba <- $x0
	mov	x2, xzr
	bl	ufshcd_query_hi1861_bkops
.Ltmp106:
	.loc	127 108 2 is_stmt 0     // /mnt/disk/jenkins/ci/workspace/chipset_Q_ATLANTA_R_LV_1016/opensource/component_code/vendor/huawei/extra/build/build_script/kirin_kernel_release/kernel/drivers/scsi/ufs/hisi_ufs_bkops.c:108:2
	ldp	x29, x30, [sp], #16     // 16-byte Folded Reload
	ret
.Ltmp107:
.Lfunc_end4:
	.size	ufshcd_1861_bkops_start, .Lfunc_end4-ufshcd_1861_bkops_start
	.cfi_endproc
                                        // -- End function
	.section	.text.ufshcd_1861_bkops_stop,"ax",@progbits
	.p2align	2               // -- Begin function ufshcd_1861_bkops_stop
	.type	ufshcd_1861_bkops_stop,@function
ufshcd_1861_bkops_stop:                 // @ufshcd_1861_bkops_stop
.Lfunc_begin5:
	.loc	127 112 0 is_stmt 1     // /mnt/disk/jenkins/ci/workspace/chipset_Q_ATLANTA_R_LV_1016/opensource/component_code/vendor/huawei/extra/build/build_script/kirin_kernel_release/kernel/drivers/scsi/ufs/hisi_ufs_bkops.c:112:0
	.cfi_startproc
// %bb.0:
	stp	x29, x30, [sp, #-16]!   // 16-byte Folded Spill
	mov	x29, sp
	.cfi_def_cfa w29, 16
	.cfi_offset w30, -8
	.cfi_offset w29, -16
	//DEBUG_VALUE: ufshcd_1861_bkops_stop:hba <- $x0
	//DEBUG_VALUE: ufshcd_1861_bkops_stop:hba <- $x0
.Ltmp108:
	.loc	127 113 9 prologue_end  // /mnt/disk/jenkins/ci/workspace/chipset_Q_ATLANTA_R_LV_1016/opensource/component_code/vendor/huawei/extra/build/build_script/kirin_kernel_release/kernel/drivers/scsi/ufs/hisi_ufs_bkops.c:113:9
	mov	w1, #241
	//DEBUG_VALUE: ufshcd_1861_bkops_stop:hba <- $x0
	mov	x2, xzr
	bl	ufshcd_query_hi1861_bkops
.Ltmp109:
	.loc	127 113 2 is_stmt 0     // /mnt/disk/jenkins/ci/workspace/chipset_Q_ATLANTA_R_LV_1016/opensource/component_code/vendor/huawei/extra/build/build_script/kirin_kernel_release/kernel/drivers/scsi/ufs/hisi_ufs_bkops.c:113:2
	ldp	x29, x30, [sp], #16     // 16-byte Folded Reload
	ret
.Ltmp110:
.Lfunc_end5:
	.size	ufshcd_1861_bkops_stop, .Lfunc_end5-ufshcd_1861_bkops_stop
	.cfi_endproc
                                        // -- End function
	.section	.text.ufshcd_query_hi1861_bkops,"ax",@progbits
	.p2align	2               // -- Begin function ufshcd_query_hi1861_bkops
	.type	ufshcd_query_hi1861_bkops,@function
ufshcd_query_hi1861_bkops:              // @ufshcd_query_hi1861_bkops
.Lfunc_begin6:
	.loc	127 38 0 is_stmt 1      // /mnt/disk/jenkins/ci/workspace/chipset_Q_ATLANTA_R_LV_1016/opensource/component_code/vendor/huawei/extra/build/build_script/kirin_kernel_release/kernel/drivers/scsi/ufs/hisi_ufs_bkops.c:38:0
	.cfi_startproc
// %bb.0:
	sub	sp, sp, #96             // =96
	str	x23, [sp, #32]          // 8-byte Folded Spill
	stp	x22, x21, [sp, #48]     // 16-byte Folded Spill
	stp	x20, x19, [sp, #64]     // 16-byte Folded Spill
	stp	x29, x30, [sp, #80]     // 16-byte Folded Spill
	add	x29, sp, #80            // =80
	.cfi_def_cfa w29, 16
	.cfi_offset w30, -8
	.cfi_offset w29, -16
	.cfi_offset w19, -24
	.cfi_offset w20, -32
	.cfi_offset w21, -40
	.cfi_offset w22, -48
	.cfi_offset w23, -64
	//DEBUG_VALUE: ufshcd_query_hi1861_bkops:hba <- $x0
	//DEBUG_VALUE: ufshcd_query_hi1861_bkops:opcode <- $w1
	//DEBUG_VALUE: ufshcd_query_hi1861_bkops:bkops_status <- $x2
	adrp	x8, __stack_chk_guard
	ldr	x8, [x8, :lo12:__stack_chk_guard]
	str	x8, [sp, #24]
.Ltmp111:
	//DEBUG_VALUE: ufshcd_query_hi1861_bkops:response <- $xzr
	//DEBUG_VALUE: ufshcd_query_hi1861_bkops:request <- $xzr
	.loc	127 39 24 prologue_end  // /mnt/disk/jenkins/ci/workspace/chipset_Q_ATLANTA_R_LV_1016/opensource/component_code/vendor/huawei/extra/build/build_script/kirin_kernel_release/kernel/drivers/scsi/ufs/hisi_ufs_bkops.c:39:24
	stp	xzr, xzr, [sp, #8]
.Ltmp112:
	//DEBUG_VALUE: ufshcd_query_hi1861_bkops:timeout <- 1300
	//DEBUG_VALUE: ufshcd_query_hi1861_bkops:selector <- 0
	//DEBUG_VALUE: ufshcd_query_hi1861_bkops:index <- 0
	.loc	127 45 2                // /mnt/disk/jenkins/ci/workspace/chipset_Q_ATLANTA_R_LV_1016/opensource/component_code/vendor/huawei/extra/build/build_script/kirin_kernel_release/kernel/drivers/scsi/ufs/hisi_ufs_bkops.c:45:2
	cbz	x0, .LBB6_18
.Ltmp113:
// %bb.1:
	//DEBUG_VALUE: ufshcd_query_hi1861_bkops:request <- $xzr
	//DEBUG_VALUE: ufshcd_query_hi1861_bkops:response <- $xzr
	//DEBUG_VALUE: ufshcd_query_hi1861_bkops:bkops_status <- $x2
	//DEBUG_VALUE: ufshcd_query_hi1861_bkops:opcode <- $w1
	//DEBUG_VALUE: ufshcd_query_hi1861_bkops:hba <- $x0
	.loc	127 47 2                // /mnt/disk/jenkins/ci/workspace/chipset_Q_ATLANTA_R_LV_1016/opensource/component_code/vendor/huawei/extra/build/build_script/kirin_kernel_release/kernel/drivers/scsi/ufs/hisi_ufs_bkops.c:47:2
	ldr	x8, [x0, #80]
	mov	x22, x0
.Ltmp114:
	//DEBUG_VALUE: ufshcd_query_hi1861_bkops:hba <- $x22
	.loc	127 0 2 is_stmt 0       // /mnt/disk/jenkins/ci/workspace/chipset_Q_ATLANTA_R_LV_1016/opensource/component_code/vendor/huawei/extra/build/build_script/kirin_kernel_release/kernel/drivers/scsi/ufs/hisi_ufs_bkops.c:0:2
	mov	x21, x2
.Ltmp115:
	//DEBUG_VALUE: ufshcd_query_hi1861_bkops:bkops_status <- $x21
	mov	w23, w1
.Ltmp116:
	//DEBUG_VALUE: ufshcd_query_hi1861_bkops:opcode <- $w23
	.loc	127 47 2                // /mnt/disk/jenkins/ci/workspace/chipset_Q_ATLANTA_R_LV_1016/opensource/component_code/vendor/huawei/extra/build/build_script/kirin_kernel_release/kernel/drivers/scsi/ufs/hisi_ufs_bkops.c:47:2
	ldr	x0, [x8, #72]
.Ltmp117:
	//DEBUG_VALUE: spinlock_check:lock <- $x0
	bl	_raw_spin_lock_irqsave
.Ltmp118:
	.loc	127 0 0                 // /mnt/disk/jenkins/ci/workspace/chipset_Q_ATLANTA_R_LV_1016/opensource/component_code/vendor/huawei/extra/build/build_script/kirin_kernel_release/kernel/drivers/scsi/ufs/hisi_ufs_bkops.c:0:0
	ldr	x8, [x22, #80]
.Ltmp119:
	.loc	127 48 11 is_stmt 1     // /mnt/disk/jenkins/ci/workspace/chipset_Q_ATLANTA_R_LV_1016/opensource/component_code/vendor/huawei/extra/build/build_script/kirin_kernel_release/kernel/drivers/scsi/ufs/hisi_ufs_bkops.c:48:11
	ldr	w19, [x22, #536]
.Ltmp120:
	.loc	127 47 2                // /mnt/disk/jenkins/ci/workspace/chipset_Q_ATLANTA_R_LV_1016/opensource/component_code/vendor/huawei/extra/build/build_script/kirin_kernel_release/kernel/drivers/scsi/ufs/hisi_ufs_bkops.c:47:2
	mov	x1, x0
.Ltmp121:
	//DEBUG_VALUE: ufshcd_query_hi1861_bkops:flags <- $x1
	//DEBUG_VALUE: spin_unlock_irqrestore:flags <- $x1
	//DEBUG_VALUE: spin_unlock_irqrestore:lock <- $x8
	.loc	127 0 0 is_stmt 0       // /mnt/disk/jenkins/ci/workspace/chipset_Q_ATLANTA_R_LV_1016/opensource/component_code/vendor/huawei/extra/build/build_script/kirin_kernel_release/kernel/drivers/scsi/ufs/hisi_ufs_bkops.c:0:0
	ldr	x8, [x8, #72]
.Ltmp122:
	.file	142 "/mnt/disk/jenkins/ci/workspace/chipset_Q_ATLANTA_R_LV_1016/opensource/component_code/vendor/huawei/extra/build/build_script/kirin_kernel_release/kernel/include/linux/spinlock.h"
	.loc	142 372 2 is_stmt 1     // /mnt/disk/jenkins/ci/workspace/chipset_Q_ATLANTA_R_LV_1016/opensource/component_code/vendor/huawei/extra/build/build_script/kirin_kernel_release/kernel/include/linux/spinlock.h:372:2
	mov	x0, x8
	bl	_raw_spin_unlock_irqrestore
.Ltmp123:
	.loc	127 48 6                // /mnt/disk/jenkins/ci/workspace/chipset_Q_ATLANTA_R_LV_1016/opensource/component_code/vendor/huawei/extra/build/build_script/kirin_kernel_release/kernel/drivers/scsi/ufs/hisi_ufs_bkops.c:48:6
	cmp	w19, #2                 // =2
	b.ne	.LBB6_4
.Ltmp124:
// %bb.2:
	//DEBUG_VALUE: ufshcd_query_hi1861_bkops:opcode <- $w23
	//DEBUG_VALUE: ufshcd_query_hi1861_bkops:bkops_status <- $x21
	//DEBUG_VALUE: ufshcd_query_hi1861_bkops:hba <- $x22
	.loc	127 55 19               // /mnt/disk/jenkins/ci/workspace/chipset_Q_ATLANTA_R_LV_1016/opensource/component_code/vendor/huawei/extra/build/build_script/kirin_kernel_release/kernel/drivers/scsi/ufs/hisi_ufs_bkops.c:55:19
	add	x19, x22, #3552         // =3552
	.loc	127 55 2 is_stmt 0      // /mnt/disk/jenkins/ci/workspace/chipset_Q_ATLANTA_R_LV_1016/opensource/component_code/vendor/huawei/extra/build/build_script/kirin_kernel_release/kernel/drivers/scsi/ufs/hisi_ufs_bkops.c:55:2
	mov	x0, x19
	bl	mutex_lock
	.loc	127 56 27 is_stmt 1     // /mnt/disk/jenkins/ci/workspace/chipset_Q_ATLANTA_R_LV_1016/opensource/component_code/vendor/huawei/extra/build/build_script/kirin_kernel_release/kernel/drivers/scsi/ufs/hisi_ufs_bkops.c:56:27
	add	x20, x22, #880          // =880
	.loc	127 56 2 is_stmt 0      // /mnt/disk/jenkins/ci/workspace/chipset_Q_ATLANTA_R_LV_1016/opensource/component_code/vendor/huawei/extra/build/build_script/kirin_kernel_release/kernel/drivers/scsi/ufs/hisi_ufs_bkops.c:56:2
	mov	x0, x20
	bl	mutex_lock
.Ltmp125:
	//DEBUG_VALUE: ufshcd_query_hi1861_bkops:response <- [DW_OP_plus_uconst 8, DW_OP_deref] $sp
	//DEBUG_VALUE: ufshcd_query_hi1861_bkops:request <- [DW_OP_plus_uconst 16, DW_OP_deref] $sp
	.loc	127 58 2 is_stmt 1      // /mnt/disk/jenkins/ci/workspace/chipset_Q_ATLANTA_R_LV_1016/opensource/component_code/vendor/huawei/extra/build/build_script/kirin_kernel_release/kernel/drivers/scsi/ufs/hisi_ufs_bkops.c:58:2
	add	x1, sp, #16             // =16
	add	x2, sp, #8              // =8
	mov	x0, x22
	mov	w3, w23
	mov	w4, wzr
	mov	w5, wzr
	mov	w6, wzr
	bl	ufshcd_init_query
	.loc	127 60 2                // /mnt/disk/jenkins/ci/workspace/chipset_Q_ATLANTA_R_LV_1016/opensource/component_code/vendor/huawei/extra/build/build_script/kirin_kernel_release/kernel/drivers/scsi/ufs/hisi_ufs_bkops.c:60:2
	sub	w8, w23, #240           // =240
	cmp	w8, #2                  // =2
	b.hs	.LBB6_5
.Ltmp126:
// %bb.3:
	//DEBUG_VALUE: ufshcd_query_hi1861_bkops:request <- [DW_OP_plus_uconst 16, DW_OP_deref] $sp
	//DEBUG_VALUE: ufshcd_query_hi1861_bkops:response <- [DW_OP_plus_uconst 8, DW_OP_deref] $sp
	//DEBUG_VALUE: ufshcd_query_hi1861_bkops:opcode <- $w23
	//DEBUG_VALUE: ufshcd_query_hi1861_bkops:bkops_status <- $x21
	//DEBUG_VALUE: ufshcd_query_hi1861_bkops:hba <- $x22
	.loc	127 63 3                // /mnt/disk/jenkins/ci/workspace/chipset_Q_ATLANTA_R_LV_1016/opensource/component_code/vendor/huawei/extra/build/build_script/kirin_kernel_release/kernel/drivers/scsi/ufs/hisi_ufs_bkops.c:63:3
	ldr	x8, [sp, #16]
.Ltmp127:
	//DEBUG_VALUE: ufshcd_query_hi1861_bkops:request <- $x8
	.loc	127 0 3 is_stmt 0       // /mnt/disk/jenkins/ci/workspace/chipset_Q_ATLANTA_R_LV_1016/opensource/component_code/vendor/huawei/extra/build/build_script/kirin_kernel_release/kernel/drivers/scsi/ufs/hisi_ufs_bkops.c:0:3
	mov	w9, #129
	.loc	127 63 23               // /mnt/disk/jenkins/ci/workspace/chipset_Q_ATLANTA_R_LV_1016/opensource/component_code/vendor/huawei/extra/build/build_script/kirin_kernel_release/kernel/drivers/scsi/ufs/hisi_ufs_bkops.c:63:23
	strb	w9, [x8]
	b	.LBB6_7
.Ltmp128:
.LBB6_4:
	//DEBUG_VALUE: ufshcd_query_hi1861_bkops:opcode <- $w23
	//DEBUG_VALUE: ufshcd_query_hi1861_bkops:bkops_status <- $x21
	//DEBUG_VALUE: ufshcd_query_hi1861_bkops:hba <- $x22
	.loc	127 0 23                // /mnt/disk/jenkins/ci/workspace/chipset_Q_ATLANTA_R_LV_1016/opensource/component_code/vendor/huawei/extra/build/build_script/kirin_kernel_release/kernel/drivers/scsi/ufs/hisi_ufs_bkops.c:0:23
	orr	w23, wzr, #0xfffffff0
.Ltmp129:
	b	.LBB6_15
.Ltmp130:
.LBB6_5:
	//DEBUG_VALUE: ufshcd_query_hi1861_bkops:request <- [DW_OP_plus_uconst 16, DW_OP_deref] $sp
	//DEBUG_VALUE: ufshcd_query_hi1861_bkops:response <- [DW_OP_plus_uconst 8, DW_OP_deref] $sp
	//DEBUG_VALUE: ufshcd_query_hi1861_bkops:opcode <- $w23
	//DEBUG_VALUE: ufshcd_query_hi1861_bkops:bkops_status <- $x21
	//DEBUG_VALUE: ufshcd_query_hi1861_bkops:hba <- $x22
	.loc	127 60 2 is_stmt 1      // /mnt/disk/jenkins/ci/workspace/chipset_Q_ATLANTA_R_LV_1016/opensource/component_code/vendor/huawei/extra/build/build_script/kirin_kernel_release/kernel/drivers/scsi/ufs/hisi_ufs_bkops.c:60:2
	cmp	w23, #242               // =242
	b.ne	.LBB6_9
.Ltmp131:
// %bb.6:
	//DEBUG_VALUE: ufshcd_query_hi1861_bkops:request <- [DW_OP_plus_uconst 16, DW_OP_deref] $sp
	//DEBUG_VALUE: ufshcd_query_hi1861_bkops:response <- [DW_OP_plus_uconst 8, DW_OP_deref] $sp
	//DEBUG_VALUE: ufshcd_query_hi1861_bkops:opcode <- $w23
	//DEBUG_VALUE: ufshcd_query_hi1861_bkops:bkops_status <- $x21
	//DEBUG_VALUE: ufshcd_query_hi1861_bkops:hba <- $x22
	.loc	127 66 3                // /mnt/disk/jenkins/ci/workspace/chipset_Q_ATLANTA_R_LV_1016/opensource/component_code/vendor/huawei/extra/build/build_script/kirin_kernel_release/kernel/drivers/scsi/ufs/hisi_ufs_bkops.c:66:3
	ldr	x8, [sp, #16]
.Ltmp132:
	//DEBUG_VALUE: ufshcd_query_hi1861_bkops:request <- $x8
	.loc	127 0 3 is_stmt 0       // /mnt/disk/jenkins/ci/workspace/chipset_Q_ATLANTA_R_LV_1016/opensource/component_code/vendor/huawei/extra/build/build_script/kirin_kernel_release/kernel/drivers/scsi/ufs/hisi_ufs_bkops.c:0:3
	orr	w9, wzr, #0x1
	.loc	127 66 23               // /mnt/disk/jenkins/ci/workspace/chipset_Q_ATLANTA_R_LV_1016/opensource/component_code/vendor/huawei/extra/build/build_script/kirin_kernel_release/kernel/drivers/scsi/ufs/hisi_ufs_bkops.c:66:23
	strb	w9, [x8]
	.loc	127 67 7 is_stmt 1      // /mnt/disk/jenkins/ci/workspace/chipset_Q_ATLANTA_R_LV_1016/opensource/component_code/vendor/huawei/extra/build/build_script/kirin_kernel_release/kernel/drivers/scsi/ufs/hisi_ufs_bkops.c:67:7
	cbz	x21, .LBB6_12
.Ltmp133:
.LBB6_7:
	//DEBUG_VALUE: ufshcd_query_hi1861_bkops:request <- $x8
	//DEBUG_VALUE: ufshcd_query_hi1861_bkops:response <- [DW_OP_plus_uconst 8, DW_OP_deref] $sp
	//DEBUG_VALUE: ufshcd_query_hi1861_bkops:opcode <- $w23
	//DEBUG_VALUE: ufshcd_query_hi1861_bkops:bkops_status <- $x21
	//DEBUG_VALUE: ufshcd_query_hi1861_bkops:hba <- $x22
	.loc	127 83 8                // /mnt/disk/jenkins/ci/workspace/chipset_Q_ATLANTA_R_LV_1016/opensource/component_code/vendor/huawei/extra/build/build_script/kirin_kernel_release/kernel/drivers/scsi/ufs/hisi_ufs_bkops.c:83:8
	orr	w1, wzr, #0x1
	mov	w2, #1300
	mov	x0, x22
	bl	ufshcd_exec_dev_cmd
.Ltmp134:
	.loc	127 85 6                // /mnt/disk/jenkins/ci/workspace/chipset_Q_ATLANTA_R_LV_1016/opensource/component_code/vendor/huawei/extra/build/build_script/kirin_kernel_release/kernel/drivers/scsi/ufs/hisi_ufs_bkops.c:85:6
	cbz	w0, .LBB6_10
.Ltmp135:
// %bb.8:
	//DEBUG_VALUE: ufshcd_query_hi1861_bkops:response <- [DW_OP_plus_uconst 8, DW_OP_deref] $sp
	//DEBUG_VALUE: ufshcd_query_hi1861_bkops:opcode <- $w23
	//DEBUG_VALUE: ufshcd_query_hi1861_bkops:bkops_status <- $x21
	//DEBUG_VALUE: ufshcd_query_hi1861_bkops:hba <- $x22
	.loc	127 0 0 is_stmt 0       // /mnt/disk/jenkins/ci/workspace/chipset_Q_ATLANTA_R_LV_1016/opensource/component_code/vendor/huawei/extra/build/build_script/kirin_kernel_release/kernel/drivers/scsi/ufs/hisi_ufs_bkops.c:0:0
	mov	w23, w0
.Ltmp136:
	//DEBUG_VALUE: ufshcd_query_hi1861_bkops:err <- $w23
	.loc	127 86 16 is_stmt 1     // /mnt/disk/jenkins/ci/workspace/chipset_Q_ATLANTA_R_LV_1016/opensource/component_code/vendor/huawei/extra/build/build_script/kirin_kernel_release/kernel/drivers/scsi/ufs/hisi_ufs_bkops.c:86:16
	ldr	x0, [x22, #88]
	.loc	127 86 3 is_stmt 0      // /mnt/disk/jenkins/ci/workspace/chipset_Q_ATLANTA_R_LV_1016/opensource/component_code/vendor/huawei/extra/build/build_script/kirin_kernel_release/kernel/drivers/scsi/ufs/hisi_ufs_bkops.c:86:3
	adrp	x1, .L.str.8
	adrp	x2, .L__func__.ufshcd_query_hi1861_bkops
	add	x1, x1, :lo12:.L.str.8
	add	x2, x2, :lo12:.L__func__.ufshcd_query_hi1861_bkops
	mov	w3, w23
	bl	dev_err
	b	.LBB6_14
.Ltmp137:
.LBB6_9:
	//DEBUG_VALUE: ufshcd_query_hi1861_bkops:request <- [DW_OP_plus_uconst 16, DW_OP_deref] $sp
	//DEBUG_VALUE: ufshcd_query_hi1861_bkops:response <- [DW_OP_plus_uconst 8, DW_OP_deref] $sp
	//DEBUG_VALUE: ufshcd_query_hi1861_bkops:opcode <- $w23
	//DEBUG_VALUE: ufshcd_query_hi1861_bkops:bkops_status <- $x21
	//DEBUG_VALUE: ufshcd_query_hi1861_bkops:hba <- $x22
	.loc	127 76 16 is_stmt 1     // /mnt/disk/jenkins/ci/workspace/chipset_Q_ATLANTA_R_LV_1016/opensource/component_code/vendor/huawei/extra/build/build_script/kirin_kernel_release/kernel/drivers/scsi/ufs/hisi_ufs_bkops.c:76:16
	ldr	x0, [x22, #88]
	.loc	127 76 3 is_stmt 0      // /mnt/disk/jenkins/ci/workspace/chipset_Q_ATLANTA_R_LV_1016/opensource/component_code/vendor/huawei/extra/build/build_script/kirin_kernel_release/kernel/drivers/scsi/ufs/hisi_ufs_bkops.c:76:3
	adrp	x1, .L.str.7
	adrp	x2, .L__func__.ufshcd_query_hi1861_bkops
	add	x1, x1, :lo12:.L.str.7
	add	x2, x2, :lo12:.L__func__.ufshcd_query_hi1861_bkops
	mov	w3, w23
	bl	dev_err
	b	.LBB6_13
.Ltmp138:
.LBB6_10:
	//DEBUG_VALUE: ufshcd_query_hi1861_bkops:response <- [DW_OP_plus_uconst 8, DW_OP_deref] $sp
	//DEBUG_VALUE: ufshcd_query_hi1861_bkops:opcode <- $w23
	//DEBUG_VALUE: ufshcd_query_hi1861_bkops:bkops_status <- $x21
	//DEBUG_VALUE: ufshcd_query_hi1861_bkops:hba <- $x22
	.loc	127 0 0                 // /mnt/disk/jenkins/ci/workspace/chipset_Q_ATLANTA_R_LV_1016/opensource/component_code/vendor/huawei/extra/build/build_script/kirin_kernel_release/kernel/drivers/scsi/ufs/hisi_ufs_bkops.c:0:0
	mov	w23, wzr
.Ltmp139:
	.loc	127 91 6 is_stmt 1      // /mnt/disk/jenkins/ci/workspace/chipset_Q_ATLANTA_R_LV_1016/opensource/component_code/vendor/huawei/extra/build/build_script/kirin_kernel_release/kernel/drivers/scsi/ufs/hisi_ufs_bkops.c:91:6
	cbz	x21, .LBB6_14
.Ltmp140:
// %bb.11:
	//DEBUG_VALUE: ufshcd_query_hi1861_bkops:response <- [DW_OP_plus_uconst 8, DW_OP_deref] $sp
	//DEBUG_VALUE: ufshcd_query_hi1861_bkops:bkops_status <- $x21
	//DEBUG_VALUE: ufshcd_query_hi1861_bkops:hba <- $x22
	.loc	127 93 4                // /mnt/disk/jenkins/ci/workspace/chipset_Q_ATLANTA_R_LV_1016/opensource/component_code/vendor/huawei/extra/build/build_script/kirin_kernel_release/kernel/drivers/scsi/ufs/hisi_ufs_bkops.c:93:4
	ldr	x8, [sp, #8]
.Ltmp141:
	//DEBUG_VALUE: ufshcd_query_hi1861_bkops:response <- $x8
	ldrb	w8, [x8, #19]
.Ltmp142:
	.loc	127 92 17               // /mnt/disk/jenkins/ci/workspace/chipset_Q_ATLANTA_R_LV_1016/opensource/component_code/vendor/huawei/extra/build/build_script/kirin_kernel_release/kernel/drivers/scsi/ufs/hisi_ufs_bkops.c:92:17
	str	w8, [x21]
	b	.LBB6_14
.Ltmp143:
.LBB6_12:
	//DEBUG_VALUE: ufshcd_query_hi1861_bkops:request <- $x8
	//DEBUG_VALUE: ufshcd_query_hi1861_bkops:response <- [DW_OP_plus_uconst 8, DW_OP_deref] $sp
	//DEBUG_VALUE: ufshcd_query_hi1861_bkops:opcode <- $w23
	//DEBUG_VALUE: ufshcd_query_hi1861_bkops:bkops_status <- $x21
	//DEBUG_VALUE: ufshcd_query_hi1861_bkops:hba <- $x22
	.loc	127 68 17               // /mnt/disk/jenkins/ci/workspace/chipset_Q_ATLANTA_R_LV_1016/opensource/component_code/vendor/huawei/extra/build/build_script/kirin_kernel_release/kernel/drivers/scsi/ufs/hisi_ufs_bkops.c:68:17
	ldr	x0, [x22, #88]
	.loc	127 68 4 is_stmt 0      // /mnt/disk/jenkins/ci/workspace/chipset_Q_ATLANTA_R_LV_1016/opensource/component_code/vendor/huawei/extra/build/build_script/kirin_kernel_release/kernel/drivers/scsi/ufs/hisi_ufs_bkops.c:68:4
	adrp	x1, .L.str.6
	adrp	x2, .L__func__.ufshcd_query_hi1861_bkops
	add	x1, x1, :lo12:.L.str.6
	add	x2, x2, :lo12:.L__func__.ufshcd_query_hi1861_bkops
	bl	dev_err
.Ltmp144:
.LBB6_13:
	//DEBUG_VALUE: ufshcd_query_hi1861_bkops:response <- [DW_OP_plus_uconst 8, DW_OP_deref] $sp
	//DEBUG_VALUE: ufshcd_query_hi1861_bkops:opcode <- $w23
	//DEBUG_VALUE: ufshcd_query_hi1861_bkops:bkops_status <- $x21
	//DEBUG_VALUE: ufshcd_query_hi1861_bkops:hba <- $x22
	.loc	127 0 4                 // /mnt/disk/jenkins/ci/workspace/chipset_Q_ATLANTA_R_LV_1016/opensource/component_code/vendor/huawei/extra/build/build_script/kirin_kernel_release/kernel/drivers/scsi/ufs/hisi_ufs_bkops.c:0:4
	mov	w23, #-22
.Ltmp145:
	//DEBUG_VALUE: ufshcd_query_hi1861_bkops:err <- -22
.LBB6_14:
	//DEBUG_VALUE: ufshcd_query_hi1861_bkops:bkops_status <- $x21
	//DEBUG_VALUE: ufshcd_query_hi1861_bkops:hba <- $x22
	//DEBUG_VALUE: ufshcd_query_hi1861_bkops:err <- $w23
	.loc	127 97 2 is_stmt 1      // /mnt/disk/jenkins/ci/workspace/chipset_Q_ATLANTA_R_LV_1016/opensource/component_code/vendor/huawei/extra/build/build_script/kirin_kernel_release/kernel/drivers/scsi/ufs/hisi_ufs_bkops.c:97:2
	mov	x0, x20
	bl	mutex_unlock
	.loc	127 98 2                // /mnt/disk/jenkins/ci/workspace/chipset_Q_ATLANTA_R_LV_1016/opensource/component_code/vendor/huawei/extra/build/build_script/kirin_kernel_release/kernel/drivers/scsi/ufs/hisi_ufs_bkops.c:98:2
	mov	x0, x19
	bl	mutex_unlock
.Ltmp146:
.LBB6_15:
	//DEBUG_VALUE: ufshcd_query_hi1861_bkops:bkops_status <- $x21
	//DEBUG_VALUE: ufshcd_query_hi1861_bkops:hba <- $x22
	.loc	127 0 2 is_stmt 0       // /mnt/disk/jenkins/ci/workspace/chipset_Q_ATLANTA_R_LV_1016/opensource/component_code/vendor/huawei/extra/build/build_script/kirin_kernel_release/kernel/drivers/scsi/ufs/hisi_ufs_bkops.c:0:2
	adrp	x9, __stack_chk_guard
	ldr	x8, [sp, #24]
	ldr	x9, [x9, :lo12:__stack_chk_guard]
	cmp	x9, x8
	b.ne	.LBB6_17
.Ltmp147:
// %bb.16:
	//DEBUG_VALUE: ufshcd_query_hi1861_bkops:bkops_status <- $x21
	//DEBUG_VALUE: ufshcd_query_hi1861_bkops:hba <- $x22
	.loc	127 100 1 is_stmt 1     // /mnt/disk/jenkins/ci/workspace/chipset_Q_ATLANTA_R_LV_1016/opensource/component_code/vendor/huawei/extra/build/build_script/kirin_kernel_release/kernel/drivers/scsi/ufs/hisi_ufs_bkops.c:100:1
	mov	w0, w23
	ldp	x29, x30, [sp, #80]     // 16-byte Folded Reload
	ldp	x20, x19, [sp, #64]     // 16-byte Folded Reload
	ldp	x22, x21, [sp, #48]     // 16-byte Folded Reload
.Ltmp148:
	ldr	x23, [sp, #32]          // 8-byte Folded Reload
	add	sp, sp, #96             // =96
	ret
.LBB6_17:
.Ltmp149:
	//DEBUG_VALUE: ufshcd_query_hi1861_bkops:bkops_status <- $x21
	//DEBUG_VALUE: ufshcd_query_hi1861_bkops:hba <- $x22
	.loc	127 0 1 is_stmt 0       // /mnt/disk/jenkins/ci/workspace/chipset_Q_ATLANTA_R_LV_1016/opensource/component_code/vendor/huawei/extra/build/build_script/kirin_kernel_release/kernel/drivers/scsi/ufs/hisi_ufs_bkops.c:0:1
	bl	__stack_chk_fail
.Ltmp150:
.LBB6_18:
	//DEBUG_VALUE: ufshcd_query_hi1861_bkops:request <- $xzr
	//DEBUG_VALUE: ufshcd_query_hi1861_bkops:response <- $xzr
	//DEBUG_VALUE: ufshcd_query_hi1861_bkops:bkops_status <- $x2
	//DEBUG_VALUE: ufshcd_query_hi1861_bkops:opcode <- $w1
	//DEBUG_VALUE: ufshcd_query_hi1861_bkops:hba <- $x0
	.loc	127 45 2 is_stmt 1      // /mnt/disk/jenkins/ci/workspace/chipset_Q_ATLANTA_R_LV_1016/opensource/component_code/vendor/huawei/extra/build/build_script/kirin_kernel_release/kernel/drivers/scsi/ufs/hisi_ufs_bkops.c:45:2
	//APP
	.pushsection __bug_table,"aw"; .align 2; 0: .long 1f - 0b; .pushsection .rodata.str,"aMS",@progbits,1; 2: .string "/mnt/disk/jenkins/ci/workspace/chipset_Q_ATLANTA_R_LV_1016/opensource/component_code/vendor/huawei/extra/build/build_script/kirin_kernel_release/kernel/drivers/scsi/ufs/hisi_ufs_bkops.c"; .popsection; .long 2b - 0b; .short 45; .short 0; .popsection; 1: brk 0x800
	//NO_APP
.Ltmp151:
.Lfunc_end6:
	.size	ufshcd_query_hi1861_bkops, .Lfunc_end6-ufshcd_query_hi1861_bkops
	.cfi_endproc
                                        // -- End function
	.section	.text.ufshcd_hynix_bkops_query,"ax",@progbits
	.p2align	2               // -- Begin function ufshcd_hynix_bkops_query
	.type	ufshcd_hynix_bkops_query,@function
ufshcd_hynix_bkops_query:               // @ufshcd_hynix_bkops_query
.Lfunc_begin7:
	.loc	127 123 0               // /mnt/disk/jenkins/ci/workspace/chipset_Q_ATLANTA_R_LV_1016/opensource/component_code/vendor/huawei/extra/build/build_script/kirin_kernel_release/kernel/drivers/scsi/ufs/hisi_ufs_bkops.c:123:0
	.cfi_startproc
// %bb.0:
	stp	x29, x30, [sp, #-16]!   // 16-byte Folded Spill
	mov	x29, sp
	.cfi_def_cfa w29, 16
	.cfi_offset w30, -8
	.cfi_offset w29, -16
	//DEBUG_VALUE: ufshcd_hynix_bkops_query:hba <- $x0
	//DEBUG_VALUE: ufshcd_hynix_bkops_query:status <- $x1
	mov	x5, x1
.Ltmp152:
	//DEBUG_VALUE: ufshcd_hynix_bkops_query:status <- $x5
	//DEBUG_VALUE: ufshcd_hynix_bkops_query:hba <- $x0
	.loc	127 124 9 prologue_end  // /mnt/disk/jenkins/ci/workspace/chipset_Q_ATLANTA_R_LV_1016/opensource/component_code/vendor/huawei/extra/build/build_script/kirin_kernel_release/kernel/drivers/scsi/ufs/hisi_ufs_bkops.c:124:9
	orr	w1, wzr, #0x3
	mov	w2, #19
	//DEBUG_VALUE: ufshcd_hynix_bkops_query:hba <- $x0
	mov	w3, wzr
	mov	w4, wzr
	//DEBUG_VALUE: ufshcd_hynix_bkops_query:status <- $x5
	bl	ufshcd_query_attr_safe
.Ltmp153:
	.loc	127 124 2 is_stmt 0     // /mnt/disk/jenkins/ci/workspace/chipset_Q_ATLANTA_R_LV_1016/opensource/component_code/vendor/huawei/extra/build/build_script/kirin_kernel_release/kernel/drivers/scsi/ufs/hisi_ufs_bkops.c:124:2
	ldp	x29, x30, [sp], #16     // 16-byte Folded Reload
	ret
.Ltmp154:
.Lfunc_end7:
	.size	ufshcd_hynix_bkops_query, .Lfunc_end7-ufshcd_hynix_bkops_query
	.cfi_endproc
                                        // -- End function
	.section	.text.ufshcd_hynix_bkops_start,"ax",@progbits
	.p2align	2               // -- Begin function ufshcd_hynix_bkops_start
	.type	ufshcd_hynix_bkops_start,@function
ufshcd_hynix_bkops_start:               // @ufshcd_hynix_bkops_start
.Lfunc_begin8:
	.loc	127 128 0 is_stmt 1     // /mnt/disk/jenkins/ci/workspace/chipset_Q_ATLANTA_R_LV_1016/opensource/component_code/vendor/huawei/extra/build/build_script/kirin_kernel_release/kernel/drivers/scsi/ufs/hisi_ufs_bkops.c:128:0
	.cfi_startproc
// %bb.0:
	sub	sp, sp, #32             // =32
	stp	x29, x30, [sp, #16]     // 16-byte Folded Spill
	add	x29, sp, #16            // =16
	.cfi_def_cfa w29, 16
	.cfi_offset w30, -8
	.cfi_offset w29, -16
	//DEBUG_VALUE: ufshcd_hynix_bkops_start:hba <- $x0
	adrp	x8, __stack_chk_guard
	ldr	x8, [x8, :lo12:__stack_chk_guard]
	orr	w9, wzr, #0x1
.Ltmp155:
	.loc	127 131 9 prologue_end  // /mnt/disk/jenkins/ci/workspace/chipset_Q_ATLANTA_R_LV_1016/opensource/component_code/vendor/huawei/extra/build/build_script/kirin_kernel_release/kernel/drivers/scsi/ufs/hisi_ufs_bkops.c:131:9
	orr	w1, wzr, #0x4
	mov	w2, #18
	add	x5, sp, #4              // =4
	//DEBUG_VALUE: ufshcd_hynix_bkops_start:hba <- $x0
	mov	w3, wzr
	mov	w4, wzr
	str	x8, [sp, #8]
.Ltmp156:
	//DEBUG_VALUE: ufshcd_hynix_bkops_start:val <- 1
	//DEBUG_VALUE: ufshcd_hynix_bkops_start:hba <- $x0
	.loc	127 129 6               // /mnt/disk/jenkins/ci/workspace/chipset_Q_ATLANTA_R_LV_1016/opensource/component_code/vendor/huawei/extra/build/build_script/kirin_kernel_release/kernel/drivers/scsi/ufs/hisi_ufs_bkops.c:129:6
	str	w9, [sp, #4]
.Ltmp157:
	//DEBUG_VALUE: ufshcd_hynix_bkops_start:val <- [DW_OP_plus_uconst 4, DW_OP_deref] $sp
	.loc	127 131 9               // /mnt/disk/jenkins/ci/workspace/chipset_Q_ATLANTA_R_LV_1016/opensource/component_code/vendor/huawei/extra/build/build_script/kirin_kernel_release/kernel/drivers/scsi/ufs/hisi_ufs_bkops.c:131:9
	bl	ufshcd_query_attr_safe
.Ltmp158:
	.loc	127 0 9 is_stmt 0       // /mnt/disk/jenkins/ci/workspace/chipset_Q_ATLANTA_R_LV_1016/opensource/component_code/vendor/huawei/extra/build/build_script/kirin_kernel_release/kernel/drivers/scsi/ufs/hisi_ufs_bkops.c:0:9
	adrp	x9, __stack_chk_guard
	ldr	x8, [sp, #8]
	ldr	x9, [x9, :lo12:__stack_chk_guard]
	cmp	x9, x8
	b.ne	.LBB8_2
.Ltmp159:
// %bb.1:
	//DEBUG_VALUE: ufshcd_hynix_bkops_start:val <- [DW_OP_plus_uconst 4, DW_OP_deref] $sp
	.loc	127 131 2               // /mnt/disk/jenkins/ci/workspace/chipset_Q_ATLANTA_R_LV_1016/opensource/component_code/vendor/huawei/extra/build/build_script/kirin_kernel_release/kernel/drivers/scsi/ufs/hisi_ufs_bkops.c:131:2
	ldp	x29, x30, [sp, #16]     // 16-byte Folded Reload
	add	sp, sp, #32             // =32
.Ltmp160:
	ret
.Ltmp161:
.LBB8_2:
	//DEBUG_VALUE: ufshcd_hynix_bkops_start:val <- [DW_OP_plus_uconst 4, DW_OP_deref] $sp
	.loc	127 0 2                 // /mnt/disk/jenkins/ci/workspace/chipset_Q_ATLANTA_R_LV_1016/opensource/component_code/vendor/huawei/extra/build/build_script/kirin_kernel_release/kernel/drivers/scsi/ufs/hisi_ufs_bkops.c:0:2
	bl	__stack_chk_fail
.Lfunc_end8:
	.size	ufshcd_hynix_bkops_start, .Lfunc_end8-ufshcd_hynix_bkops_start
	.cfi_endproc
                                        // -- End function
	.section	.text.ufshcd_hynix_bkops_stop,"ax",@progbits
	.p2align	2               // -- Begin function ufshcd_hynix_bkops_stop
	.type	ufshcd_hynix_bkops_stop,@function
ufshcd_hynix_bkops_stop:                // @ufshcd_hynix_bkops_stop
.Lfunc_begin9:
	.loc	127 135 0 is_stmt 1     // /mnt/disk/jenkins/ci/workspace/chipset_Q_ATLANTA_R_LV_1016/opensource/component_code/vendor/huawei/extra/build/build_script/kirin_kernel_release/kernel/drivers/scsi/ufs/hisi_ufs_bkops.c:135:0
	.cfi_startproc
// %bb.0:
	sub	sp, sp, #32             // =32
	stp	x29, x30, [sp, #16]     // 16-byte Folded Spill
	add	x29, sp, #16            // =16
	.cfi_def_cfa w29, 16
	.cfi_offset w30, -8
	.cfi_offset w29, -16
	//DEBUG_VALUE: ufshcd_hynix_bkops_stop:hba <- $x0
	adrp	x8, __stack_chk_guard
	ldr	x8, [x8, :lo12:__stack_chk_guard]
.Ltmp162:
	.loc	127 138 9 prologue_end  // /mnt/disk/jenkins/ci/workspace/chipset_Q_ATLANTA_R_LV_1016/opensource/component_code/vendor/huawei/extra/build/build_script/kirin_kernel_release/kernel/drivers/scsi/ufs/hisi_ufs_bkops.c:138:9
	orr	w1, wzr, #0x4
	mov	w2, #18
	add	x5, sp, #4              // =4
	//DEBUG_VALUE: ufshcd_hynix_bkops_stop:hba <- $x0
	mov	w3, wzr
	mov	w4, wzr
	str	x8, [sp, #8]
.Ltmp163:
	//DEBUG_VALUE: ufshcd_hynix_bkops_stop:val <- 0
	//DEBUG_VALUE: ufshcd_hynix_bkops_stop:hba <- $x0
	.loc	127 136 6               // /mnt/disk/jenkins/ci/workspace/chipset_Q_ATLANTA_R_LV_1016/opensource/component_code/vendor/huawei/extra/build/build_script/kirin_kernel_release/kernel/drivers/scsi/ufs/hisi_ufs_bkops.c:136:6
	str	wzr, [sp, #4]
.Ltmp164:
	//DEBUG_VALUE: ufshcd_hynix_bkops_stop:val <- [DW_OP_plus_uconst 4, DW_OP_deref] $sp
	.loc	127 138 9               // /mnt/disk/jenkins/ci/workspace/chipset_Q_ATLANTA_R_LV_1016/opensource/component_code/vendor/huawei/extra/build/build_script/kirin_kernel_release/kernel/drivers/scsi/ufs/hisi_ufs_bkops.c:138:9
	bl	ufshcd_query_attr_safe
.Ltmp165:
	.loc	127 0 9 is_stmt 0       // /mnt/disk/jenkins/ci/workspace/chipset_Q_ATLANTA_R_LV_1016/opensource/component_code/vendor/huawei/extra/build/build_script/kirin_kernel_release/kernel/drivers/scsi/ufs/hisi_ufs_bkops.c:0:9
	adrp	x9, __stack_chk_guard
	ldr	x8, [sp, #8]
	ldr	x9, [x9, :lo12:__stack_chk_guard]
	cmp	x9, x8
	b.ne	.LBB9_2
.Ltmp166:
// %bb.1:
	//DEBUG_VALUE: ufshcd_hynix_bkops_stop:val <- [DW_OP_plus_uconst 4, DW_OP_deref] $sp
	.loc	127 138 2               // /mnt/disk/jenkins/ci/workspace/chipset_Q_ATLANTA_R_LV_1016/opensource/component_code/vendor/huawei/extra/build/build_script/kirin_kernel_release/kernel/drivers/scsi/ufs/hisi_ufs_bkops.c:138:2
	ldp	x29, x30, [sp, #16]     // 16-byte Folded Reload
	add	sp, sp, #32             // =32
.Ltmp167:
	ret
.Ltmp168:
.LBB9_2:
	//DEBUG_VALUE: ufshcd_hynix_bkops_stop:val <- [DW_OP_plus_uconst 4, DW_OP_deref] $sp
	.loc	127 0 2                 // /mnt/disk/jenkins/ci/workspace/chipset_Q_ATLANTA_R_LV_1016/opensource/component_code/vendor/huawei/extra/build/build_script/kirin_kernel_release/kernel/drivers/scsi/ufs/hisi_ufs_bkops.c:0:2
	bl	__stack_chk_fail
.Lfunc_end9:
	.size	ufshcd_hynix_bkops_stop, .Lfunc_end9-ufshcd_hynix_bkops_stop
	.cfi_endproc
                                        // -- End function
	.type	.L.str,@object          // @.str
	.section	.rodata.str1.1,"aMS",@progbits,1
.L.str:
	.asciz	"\0013UFS bkops status query failed!\n"
	.size	.L.str, 34

	.type	.L.str.1,@object        // @.str.1
.L.str.1:
	.asciz	"\0013bkops not supported or has been enabled already!\n"
	.size	.L.str.1, 52

	.type	hi1861_bkops_ops,@object // @hi1861_bkops_ops
	.section	.data.hi1861_bkops_ops,"aw",@progbits
	.p2align	3
hi1861_bkops_ops:
	.xword	ufshcd_1861_bkops_query
	.xword	ufshcd_1861_bkops_start
	.xword	ufshcd_1861_bkops_stop
	.size	hi1861_bkops_ops, 24

	.type	bkops_status_str_1861,@object // @bkops_status_str_1861
	.section	.data.bkops_status_str_1861,"aw",@progbits
	.p2align	3
bkops_status_str_1861:
	.xword	.L.str.9
	.xword	.L.str.10
	.xword	.L.str.11
	.xword	.L.str.12
	.xword	.L.str.13
	.xword	.L.str.14
	.size	bkops_status_str_1861, 48

	.type	hynix_bkops_ops,@object // @hynix_bkops_ops
	.section	.data.hynix_bkops_ops,"aw",@progbits
	.p2align	3
hynix_bkops_ops:
	.xword	ufshcd_hynix_bkops_query
	.xword	ufshcd_hynix_bkops_start
	.xword	ufshcd_hynix_bkops_stop
	.size	hynix_bkops_ops, 24

	.type	bkops_status_str_hynix,@object // @bkops_status_str_hynix
	.section	.data.bkops_status_str_hynix,"aw",@progbits
	.p2align	3
bkops_status_str_hynix:
	.xword	.L.str.9
	.xword	.L.str.15
	.size	bkops_status_str_hynix, 16

	.type	ufs_bkops_ops,@object   // @ufs_bkops_ops
	.section	.data.ufs_bkops_ops,"aw",@progbits
	.p2align	3
ufs_bkops_ops:
	.xword	__ufshcd_bkops_start_stop
	.xword	__ufshcd_bkops_status_query
	.size	ufs_bkops_ops, 16

	.type	.L.str.2,@object        // @.str.2
	.section	.rodata.str1.1,"aMS",@progbits,1
.L.str.2:
	.asciz	"\0013UFS bkops start failed!\n"
	.size	.L.str.2, 27

	.type	.L.str.4,@object        // @.str.4
.L.str.4:
	.asciz	"HISI_UFS_MODEL_ANY"
	.size	.L.str.4, 19

	.type	.L.str.5,@object        // @.str.5
.L.str.5:
	.asciz	"HISI_UFS_REV_ANY"
	.size	.L.str.5, 17

	.type	.L.str.6,@object        // @.str.6
.L.str.6:
	.asciz	"%s: Invalid argument for read request\n"
	.size	.L.str.6, 39

	.type	.L__func__.ufshcd_query_hi1861_bkops,@object // @__func__.ufshcd_query_hi1861_bkops
.L__func__.ufshcd_query_hi1861_bkops:
	.asciz	"ufshcd_query_hi1861_bkops"
	.size	.L__func__.ufshcd_query_hi1861_bkops, 26

	.type	.L.str.7,@object        // @.str.7
.L.str.7:
	.asciz	"%s: Expected query bkops opcode but got = %d\n"
	.size	.L.str.7, 46

	.type	.L.str.8,@object        // @.str.8
.L.str.8:
	.asciz	"%s: Sending bkops query failed, err = %d\n"
	.size	.L.str.8, 42

	.type	.L.str.9,@object        // @.str.9
.L.str.9:
	.asciz	"bkops none"
	.size	.L.str.9, 11

	.type	.L.str.10,@object       // @.str.10
.L.str.10:
	.asciz	"bkops normal"
	.size	.L.str.10, 13

	.type	.L.str.11,@object       // @.str.11
.L.str.11:
	.asciz	"bkops urgent count"
	.size	.L.str.11, 19

	.type	.L.str.12,@object       // @.str.12
.L.str.12:
	.asciz	"bkops wl"
	.size	.L.str.12, 9

	.type	.L.str.13,@object       // @.str.13
.L.str.13:
	.asciz	"bkops not care"
	.size	.L.str.13, 15

	.type	.L.str.14,@object       // @.str.14
.L.str.14:
	.asciz	"bkops slc cache"
	.size	.L.str.14, 16

	.type	.L.str.15,@object       // @.str.15
.L.str.15:
	.asciz	"bkops needed"
	.size	.L.str.15, 13
